(dp0
S'aided'
p1
I4945
sS'limited'
p2
I886
sS'hoechst'
p3
I3291
sS'becomes'
p4
I4174
sS'consolidated'
p5
I1154
sS'europeans'
p6
I4197
sS'four'
p7
I196
sS'facilities'
p8
I1381
sS'protest'
p9
I2205
sS'latter'
p10
I4278
sS'asian'
p11
I2213
sS'controversial'
p12
I3503
sS'16.50'
p13
I4877
sS'consists'
p14
I4732
sS'climb'
p15
I4548
sS'undersecretary'
p16
I3014
sS'cyprus'
p17
I4272
sS'sealy'
p18
I3710
sS'1.16'
p19
I3228
sS'increase'
p20
I146
sS'votes'
p21
I2077
sS'1.15'
p22
I2859
sS'1.12'
p23
I3622
sS'1.13'
p24
I4561
sS'1.10'
p25
I2833
sS'eligible'
p26
I2676
sS'paris'
p27
I438
sS'adviser'
p28
I3930
sS'contained'
p29
I3108
sS'containing'
p30
I2889
sS'investigation'
p31
I2550
sS'340'
p32
I4550
sS'voted'
p33
I2106
sS'under'
p34
I133
sS'lord'
p35
I4017
sS'worth'
p36
I682
sS'precision'
p37
I4757
sS'placed'
p38
I1895
sS'merchant'
p39
I2572
sS'plants'
p40
I1600
sS'u.s.-japan'
p41
I4076
sS'risk'
p42
I1075
sS'communique'
p43
I4360
sS'propane'
p44
I4194
sS'alumina'
p45
I4557
sS'rise'
p46
I128
sS'exception'
p47
I3967
sS'sellers'
p48
I3816
sS'repay'
p49
I2984
sS'handling'
p50
I3426
sS'every'
p51
I1476
sS'jack'
p52
I3868
sS'suggests'
p53
I4231
sS'reforms'
p54
I2654
sS'purolator'
p55
I935
sS'exporters'
p56
I728
sS'bringing'
p57
I1983
sS'believed'
p58
I1376
sS'crops'
p59
I1061
sS'supports'
p60
I3323
sS'ucpb'
p61
I4878
sS'companies'
p62
I227
sS'wednesday'
p63
I1173
sS'assume'
p64
I4102
sS'red'
p65
I2708
sS'enhance'
p66
I3673
sS'ups'
p67
I1874
sS'charter'
p68
I2807
sS'expanded'
p69
I2231
sS'force'
p70
I882
sS'leaders'
p71
I1518
sS'afg'
p72
I2272
sS'miller'
p73
I3470
sS'consistent'
p74
I2719
sS'guidelines'
p75
I3273
sS'estimates'
p76
I725
sS'japanese'
p77
I180
sS'accused'
p78
I4254
sS'elections'
p79
I3935
sS'feasibility'
p80
I3441
sS'surrounding'
p81
I4897
sS'likely'
p82
I318
sS'street'
p83
I1477
sS'borrowings'
p84
I1422
sS'estimated'
p85
I325
sS'machines'
p86
I4920
sS'even'
p87
I638
sS'established'
p88
I2166
sS'princeville'
p89
I3266
sS'pct-owned'
p90
I4660
sS'pace'
p91
I2434
sS'260'
p92
I4758
sS'selected'
p93
I4748
sS'contributed'
p94
I1886
sS'profitability'
p95
I2012
sS'asia'
p96
I2108
sS'spokesman'
p97
I181
sS'bonuses'
p98
I4435
sS'deficits'
p99
I2379
sS'above'
p100
I453
sS'conduct'
p101
I4264
sS'supplier'
p102
I3367
sS'supplies'
p103
I1071
sS'net'
p104
I30
sS'increasing'
p105
I903
sS'ever'
p106
I2699
sS'noranda'
p107
I3144
sS'seeks'
p108
I1918
sS'told'
p109
I119
sS'avert'
p110
I4384
sS'whose'
p111
I1818
sS'licences'
p112
I1634
sS'non-bank'
p113
I4217
sS'never'
p114
I2489
sS'residual'
p115
I4056
sS'here'
p116
I526
sS'hundreds'
p117
I3706
sS'conglomerate'
p118
I4595
sS'reported'
p119
I252
sS'pratt'
p120
I3561
sS'protection'
p121
I1781
sS'china'
p122
I390
sS'hiram'
p123
I4827
sS'ethanol'
p124
I4898
sS'active'
p125
I1774
sS'affiliated'
p126
I2735
sS'100'
p127
I485
sS'diagnostic'
p128
I3267
sS'referring'
p129
I3119
sS'dry'
p130
I1744
sS'balance'
p131
I530
sS'forum'
p132
I4149
sS'ill.'
p133
I4459
sS'auction'
p134
I1717
sS'items'
p135
I1379
sS'employees'
p136
I1304
sS'changed'
p137
I1012
sS'regulators'
p138
I3502
sS'reports'
p139
I788
sS'credit'
p140
I249
sS'calculations'
p141
I4913
sS'analysts'
p142
I184
sS'chrysler'
p143
I1096
sS'stressed'
p144
I2255
sS'military'
p145
I2057
sS'casino'
p146
I4821
sS'postponed'
p147
I3546
sS'changes'
p148
I646
sS'diplomat'
p149
I4162
sS'criticism'
p150
I4436
sS'golden'
p151
I2793
sS'secure'
p152
I4398
sS'campaign'
p153
I2786
sS'11.6'
p154
I3583
sS'explained'
p155
I3471
sS'reagan'
p156
I525
sS'peabody'
p157
I2755
sS'highly'
p158
I2067
sS'brought'
p159
I1335
sS'visible'
p160
I3396
sS'sloane'
p161
I4224
sS'opportunities'
p162
I2383
sS'soybean'
p163
I598
sS'perhaps'
p164
I2806
sS'pantera'
p165
I4288
sS'total'
p166
I132
sS'pcc'
p167
I4369
sS'unit'
p168
I159
sS'hoping'
p169
I4166
sS'kanon'
p170
I3214
sS'would'
p171
I41
sS'smelter'
p172
I2559
sS'remainder'
p173
I2779
sS'achieve'
p174
I1897
sS'negative'
p175
I1523
sS'three-for-two'
p176
I1667
sS'bayou'
p177
I3842
sS'noting'
p178
I2102
sS'call'
p179
I898
sS'asset'
p180
I1531
sS'm3'
p181
I2315
sS'recommend'
p182
I2542
sS'strike'
p183
I717
sS'indiana'
p184
I2869
sS'bu'
p185
I4573
sS'receipts'
p186
I4120
sS'type'
p187
I3697
sS'until'
p188
I441
sS'swap'
p189
I2526
sS'inquiry'
p190
I4538
sS'posting'
p191
I4388
sS'generate'
p192
I3298
sS'successful'
p193
I1515
sS'brings'
p194
I2182
sS'leasing'
p195
I4385
sS'award'
p196
I4823
sS'hurt'
p197
I1832
sS'99'
p198
I3420
sS'98'
p199
I3522
sS'connecticut'
p200
I4517
sS'90.25'
p201
I4794
sS'arms'
p202
I4320
sS'excellent'
p203
I3463
sS'91'
p204
I3523
sS'90'
p205
I1149
sS'ward'
p206
I3062
sS'hold'
p207
I708
sS'95'
p208
I1865
sS'94'
p209
I2904
sS'97'
p210
I2677
sS'must'
p211
I549
sS'1991'
p212
I3094
sS'1990'
p213
I1552
sS'1992'
p214
I3547
sS'join'
p215
I2356
sS'room'
p216
I2302
sS'rights'
p217
I704
sS'mm'
p218
I2171
sS'work'
p219
I603
sS'gasoline'
p220
I1094
sS'nakasone'
p221
I1231
sS'mt'
p222
I3044
sS'oxide'
p223
I3853
sS'temperatures'
p224
I2561
sS'henry'
p225
I4899
sS'1/4'
p226
I3695
sS'revenues'
p227
I459
sS'my'
p228
I2172
sS'example'
p229
I2175
sS'bruce'
p230
I4925
sS'wang'
p231
I4335
sS'estate'
p232
I1086
sS'give'
p233
I601
sS'florida'
p234
I2078
sS'cited'
p235
I2035
sS'india'
p236
I1010
sS'discovery'
p237
I3139
sS'respective'
p238
I3543
sS'involve'
p239
I4176
sS'currency'
p240
I234
sS'foods'
p241
I1925
sS'caution'
p242
I4812
sS'ual'
p243
I2912
sS'want'
p244
I906
sS'drive'
p245
I3130
sS'keep'
p246
I943
sS'uae'
p247
I3889
sS'80,000'
p248
I4413
sS'totaled'
p249
I1609
sS'guarantee'
p250
I2149
sS'hog'
p251
I2905
sS'end'
p252
I203
sS'recovery'
p253
I1237
sS'thing'
p254
I3140
sS'provide'
p255
I697
sS'thousands'
p256
I3774
sS'damage'
p257
I1233
sS'far'
p258
I580
sS'allied'
p259
I2260
sS'interview'
p260
I992
sS'industrialised'
p261
I2508
sS'ordinary'
p262
I1432
sS'chase'
p263
I2412
sS'offshore'
p264
I1620
sS'pizza'
p265
I3408
sS'6-1/4'
p266
I4532
sS'badly'
p267
I4005
sS'regional'
p268
I1808
sS'supplied'
p269
I3555
sS'minority'
p270
I1840
sS'earlier'
p271
I151
sS'm-1'
p272
I1217
sS'confirmed'
p273
I1639
sS'm-3'
p274
I2144
sS'm-2'
p275
I2251
sS'modest'
p276
I1957
sS'barney'
p277
I3327
sS'lay'
p278
I4312
sS'cement'
p279
I3467
sS'president'
p280
I222
sS'law'
p281
I1021
sS'parallel'
p282
I4749
sS'provisionally'
p283
I3678
sS'sprinkel'
p284
I3843
sS'purchase'
p285
I357
sS'attempt'
p286
I1064
sS'third'
p287
I425
sS'amid'
p288
I3937
sS'projections'
p289
I3311
sS'provinces'
p290
I3596
sS'acknowledged'
p291
I3653
sS'deutsche'
p292
I2611
sS'discontinued'
p293
I607
sS'supermarkets'
p294
I1574
sS'greek'
p295
I2652
sS'maintain'
p296
I1146
sS'green'
p297
I3196
sS'jungle'
p298
I4473
sS'enter'
p299
I1997
sS'operate'
p300
I1358
sS'order'
p301
I763
sS'wind'
p302
I4976
sS'operations'
p303
I182
sS'origin'
p304
I2623
sS'office'
p305
I771
sS'telecom'
p306
I2032
sS"int'l"
p307
I3209
sS'over'
p308
I115
sS'expects'
p309
I283
sS'6.7'
p310
I2594
sS'6.6'
p311
I2595
sS'6.5'
p312
I1787
sS'6.4'
p313
I3479
sS'london'
p314
I569
sS'6.2'
p315
I2812
sS'12.5'
p316
I1782
sS'affect'
p317
I1377
sS'japan'
p318
I96
sS'fidelity'
p319
I4163
sS'12.8'
p320
I3444
sS'rexnord'
p321
I2848
sS'6.9'
p322
I3578
sS'before'
p323
I247
sS'10.1'
p324
I2641
sS'10.0'
p325
I3457
sS'10.3'
p326
I2049
sS'10.2'
p327
I2436
sS'10.5'
p328
I1512
sS'10.4'
p329
I2691
sS'10.7'
p330
I2860
sS'imf'
p331
I1734
sS'personal'
p332
I1725
sS'del'
p333
I3593
sS'striking'
p334
I4579
sS','
p335
I1
sS'writing'
p336
I4518
sS'better'
p337
I729
sS'16.6'
p338
I3938
sS'durum'
p339
I3784
sS'production'
p340
I113
sS'16.3'
p341
I3933
sS'16.2'
p342
I4072
sS'16.1'
p343
I3275
sS'400'
p344
I1317
sS'cap'
p345
I4453
sS'weeks'
p346
I588
sS'easier'
p347
I3302
sS'16.9'
p348
I4226
sS'inventory'
p349
I1701
sS'versus'
p350
I1105
sS'then'
p351
I738
sS'them'
p352
I447
sS'grace'
p353
I4571
sS'affected'
p354
I1117
sS'combination'
p355
I2157
sS'grisanti'
p356
I4608
sS'lambert'
p357
I2721
sS'weakness'
p358
I2186
sS'unemployed'
p359
I4985
sS'maritime'
p360
I4943
sS'carolina'
p361
I3570
sS'break'
p362
I1948
sS'band'
p363
I1199
sS'trade-weighted'
p364
I4534
sS'stoltenberg'
p365
I3022
sS'effects'
p366
I1778
sS'they'
p367
I73
sS'comprised'
p368
I2653
sS'rental'
p369
I3680
sS'silver'
p370
I1109
sS'bank'
p371
I48
sS'competitiveness'
p372
I1999
sS'1.01'
p373
I3952
sS'represents'
p374
I1833
sS'1.03'
p375
I4997
sS'netherlands'
p376
I1954
sS'1.05'
p377
I2870
sS'meat'
p378
I1309
sS'1.07'
p379
I4998
sS'reopen'
p380
I2835
sS'1.09'
p381
I4095
sS'1.08'
p382
I3693
sS'26-feb-1987'
p383
I4912
sS'cftc'
p384
I4233
sS'disputed'
p385
I3355
sS'herald'
p386
I3796
sS'proceeding'
p387
I3870
sS'affiliate'
p388
I1795
sS'bonn'
p389
I3410
sS'reasonable'
p390
I2233
sS'each'
p391
I369
sS'renouf'
p392
I4450
sS'went'
p393
I1847
sS'entitled'
p394
I3330
sS'side'
p395
I1944
sS'bond'
p396
I715
sS'lifted'
p397
I3132
sS'financial'
p398
I190
sS'directly'
p399
I2210
sS'1.19'
p400
I3867
sS'fairly'
p401
I2536
sS'series'
p402
I1332
sS'250,000'
p403
I2937
sS'liquids'
p404
I3468
sS'principles'
p405
I3759
sS'aide'
p406
I2050
sS'carry'
p407
I2024
sS'currencies'
p408
I653
sS'trading'
p409
I251
sS'impossible'
p410
I3818
sS'substantially'
p411
I1340
sS'clauses'
p412
I4733
sS'saturday'
p413
I2750
sS'burnham'
p414
I3026
sS't.'
p415
I4442
sS'decree'
p416
I2880
sS'warships'
p417
I3704
sS'network'
p418
I1529
sS'kuwait'
p419
I1382
sS'tried'
p420
I3086
sS'bat'
p421
I4177
sS'freeze'
p422
I3060
sS'vessels'
p423
I1534
sS'george'
p424
I2461
sS'semiconductor'
p425
I1056
sS'method'
p426
I2908
sS'encourage'
p427
I1550
sS'daniel'
p428
I3005
sS'riyal'
p429
I3942
sS'debit'
p430
I2692
sS'got'
p431
I2459
sS'newly'
p432
I1694
sS'venezuela'
p433
I1147
sS'twice'
p434
I3046
sS'delegate'
p435
I2723
sS'foundation'
p436
I3986
sS'perception'
p437
I4691
sS'turning'
p438
I2630
sS'resume'
p439
I2084
sS'u.s.'
p440
I39
sS'threatened'
p441
I2000
sS'given'
p442
I555
sS'free'
p443
I777
sS'standard'
p444
I851
sS'atpc'
p445
I3417
sS'disputes'
p446
I3006
sS'formation'
p447
I3336
sS'corrects'
p448
I3171
sS'boosting'
p449
I2858
sS'estimate'
p450
I699
sS'wanted'
p451
I1277
sS'widespread'
p452
I2993
sS'19.8'
p453
I4856
sS'hogs'
p454
I4583
sS'hectares'
p455
I1419
sS'starts'
p456
I1775
sS'chirac'
p457
I2703
sS'days'
p458
I422
sS'microchips'
p459
I2915
sS'pence'
p460
I4006
sS'shipped'
p461
I2027
sS'heck'
p462
I4963
sS'oppose'
p463
I3890
sS'pattern'
p464
I4002
sS"today's"
p465
I4864
sS'kingdom'
p466
I2565
sS'conducted'
p467
I3317
sS'broken'
p468
I3208
sS'strengthening'
p469
I3929
sS'bidder'
p470
I3963
sS'rand'
p471
I1416
sS'already'
p472
I410
sS'nigel'
p473
I2938
sS'economists'
p474
I590
sS'grade'
p475
I1483
sS'primary'
p476
I1263
sS'rank'
p477
I3624
sS'hearing'
p478
I2140
sS'restrict'
p479
I3734
sS'aggregate'
p480
I2816
sS'sept'
p481
I4428
sS'adopted'
p482
I1978
sS'another'
p483
I383
sS'difficulty'
p484
I4184
sS'electronic'
p485
I1690
sS'rostenkowski'
p486
I4137
sS'170'
p487
I2236
sS'mercury'
p488
I4900
sS'gradually'
p489
I3847
sS'exchequer'
p490
I2001
sS'service'
p491
I516
sS'rejects'
p492
I2291
sS'guinness'
p493
I2920
sS'top'
p494
I1113
sS'takeovers'
p495
I2796
sS'approximately'
p496
I1668
sS'haggard'
p497
I4814
sS'needed'
p498
I836
sS'rates'
p499
I138
sS'too'
p500
I746
sS'tom'
p501
I4652
sS'ftc'
p502
I4870
sS'percentage'
p503
I1204
sS'john'
p504
I1174
sS'ranging'
p505
I1866
sS'damaging'
p506
I3579
sS'inflow'
p507
I2949
sS'danish'
p508
I4086
sS'ceiling'
p509
I1478
sS'collapse'
p510
I2588
sS'geneva'
p511
I3684
sS'mechanism'
p512
I3812
sS'tool'
p513
I2173
sS'diversified'
p514
I2825
sS'serve'
p515
I3045
sS'took'
p516
I1079
sS'rejected'
p517
I1084
sS'direct'
p518
I1303
sS'awb'
p519
I3898
sS'tmoc'
p520
I2543
sS'western'
p521
I594
sS'cereal'
p522
I3445
sS'kept'
p523
I2756
sS'sulphur'
p524
I2309
sS'maintaining'
p525
I3743
sS'expanding'
p526
I2485
sS'distance'
p527
I4642
sS'incoming'
p528
I4408
sS'target'
p529
I523
sS'showed'
p530
I684
sS'citibank'
p531
I2837
sS'hike'
p532
I3334
sS'1978'
p533
I3581
sS'victor'
p534
I4345
sS'second'
p535
I371
sS'nations'
p536
I424
sS'project'
p537
I1051
sS'matter'
p538
I2167
sS'idle'
p539
I4701
sS'exchangeable'
p540
I4148
sS'oregon'
p541
I4665
sS'williams'
p542
I2328
sS'iron'
p543
I2107
sS'k'
p544
I2427
sS"company's"
p545
I1927
sS'18.2'
p546
I3908
sS'powers'
p547
I3239
sS'minus'
p548
I2966
sS'acquisition'
p549
I210
sS'quebec'
p550
I3248
sS'bridge'
p551
I4374
sS'lbs'
p552
I1519
sS'sees'
p553
I372
sS'willingness'
p554
I3216
sS'enforcement'
p555
I4346
sS'ran'
p556
I4041
sS'boston'
p557
I1528
sS'mind'
p558
I4289
sS'mine'
p559
I695
sS'500,000'
p560
I1449
sS'raw'
p561
I1653
sS'jacobs'
p562
I2533
sS'seen'
p563
I622
sS'seem'
p564
I2773
sS'warburg'
p565
I3338
sS'seek'
p566
I802
sS'5.00'
p567
I2829
sS'lbo'
p568
I3485
sS'relatively'
p569
I1452
sS'forced'
p570
I1772
sS'abroad'
p571
I1616
sS'strength'
p572
I1556
sS'340,000'
p573
I4924
sS'mostly'
p574
I2575
sS'harper'
p575
I1577
sS'climate'
p576
I3446
sS'6.1'
p577
I3951
sS'responsible'
p578
I2939
sS'-'
p579
I171
sS'snow'
p580
I2977
sS'sound'
p581
I3559
sS'recommended'
p582
I2241
sS'practices'
p583
I1810
sS'forces'
p584
I2682
sS'92.50'
p585
I4293
sS'reversed'
p586
I4300
sS'shipments'
p587
I786
sS'memory'
p588
I4043
sS'generale'
p589
I2954
sS'panama'
p590
I4889
sS'philadelphia'
p591
I3425
sS'transactions'
p592
I1100
sS'6.0'
p593
I3286
sS'lukman'
p594
I3879
sS'wells'
p595
I1680
sS'exercised'
p596
I4138
sS'extending'
p597
I3747
sS'regular'
p598
I895
sS'germany'
p599
I512
sS'letter'
p600
I651
sS'phase'
p601
I3527
sS'imported'
p602
I1326
sS'drought'
p603
I1501
sS'coin'
p604
I3126
sS'yearend'
p605
I4136
sS'zealand'
p606
I1195
sS'richard'
p607
I1369
sS'antitrust'
p608
I4762
sS'outflow'
p609
I4271
sS'medical'
p610
I1240
sS'lose'
p611
I2745
sS'flow'
p612
I1176
sS'9-7/8'
p613
I3564
sS'competitors'
p614
I4362
sS'points'
p615
I1030
sS'principle'
p616
I1122
sS'after-tax'
p617
I2789
sS'rupees'
p618
I3071
sS'voting'
p619
I1265
sS'consumer'
p620
I470
sS'dow'
p621
I2214
sS'came'
p622
I1143
sS'reserve'
p623
I404
sS'saying'
p624
I681
sS'api'
p625
I2056
sS'lewis'
p626
I4204
sS'meetings'
p627
I1521
sS'advisors'
p628
I4565
sS'writeoff'
p629
I3891
sS'ending'
p630
I720
sS'7.2'
p631
I2203
sS'7.3'
p632
I3379
sS'attempts'
p633
I2986
sS'7.1'
p634
I2311
sS'radio'
p635
I2324
sS'7.7'
p636
I3197
sS'7.4'
p637
I3380
sS'7.5'
p638
I1575
sS'hungary'
p639
I2940
sS'7.8'
p640
I3116
sS'7.9'
p641
I3580
sS'eliminated'
p642
I4772
sS'gabelli'
p643
I4321
sS'partially'
p644
I2607
sS'northeast'
p645
I3099
sS'just'
p646
I634
sS'implementation'
p647
I4139
sS'holder'
p648
I3215
sS'delays'
p649
I2972
sS'yen'
p650
I212
sS'minnesota'
p651
I3797
sS'hrs'
p652
I2886
sS'sugar'
p653
I220
sS'accelerate'
p654
I4513
sS'rich'
p655
I4911
sS'2.65'
p656
I4412
sS'announce'
p657
I2671
sS'adequate'
p658
I2552
sS'rice'
p659
I1130
sS'capel'
p660
I3279
sS'rica'
p661
I3264
sS'resulting'
p662
I1538
sS'do'
p663
I314
sS'exports'
p664
I150
sS'wide'
p665
I3165
sS'de'
p666
I693
sS'stop'
p667
I1272
sS'television'
p668
I1168
sS'preferred'
p669
I612
sS'coast'
p670
I1164
sS'25,000'
p671
I2571
sS'lenders'
p672
I3104
sS'new'
p673
I68
sS'report'
p674
I174
sS'oak'
p675
I4809
sS'du'
p676
I3381
sS'evans'
p677
I4317
sS'comply'
p678
I3825
sS'volatility'
p679
I3880
sS'8-3/4'
p680
I4683
sS'4.4'
p681
I2079
sS'earn'
p682
I2192
sS'microchip'
p683
I3374
sS'flour'
p684
I2791
sS'countries'
p685
I175
sS'exchanged'
p686
I3690
sS'fields'
p687
I1264
sS'sour'
p688
I4893
sS'oats'
p689
I3738
sS'rothschild'
p690
I4594
sS'bay'
p691
I2037
sS'depressed'
p692
I1764
sS'bad'
p693
I1727
sS'three-year'
p694
I3881
sS'ems'
p695
I1629
sS'rival'
p696
I2808
sS'release'
p697
I1295
sS'mergers'
p698
I3654
sS'secretary'
p699
I524
sS'respond'
p700
I2648
sS'decides'
p701
I3063
sS'disaster'
p702
I2481
sS'fair'
p703
I1786
sS'testing'
p704
I4736
sS'pushed'
p705
I2486
sS'depends'
p706
I3382
sS'decided'
p707
I921
sS'result'
p708
I420
sS'cattle'
p709
I1098
sS'discussions'
p710
I1219
sS'aires'
p711
I3452
sS'resigned'
p712
I3495
sS'alternative'
p713
I1591
sS'best'
p714
I1160
sS'subject'
p715
I508
sS'brazil'
p716
I330
sS'said'
p717
I7
sS'capacity'
p718
I732
sS'3.85'
p719
I4704
sS'lots'
p720
I4702
sS'away'
p721
I1669
sS'compensation'
p722
I3652
sS'henley'
p723
I3002
sS'pressures'
p724
I1858
sS'unable'
p725
I2826
sS'cooperation'
p726
I1220
sS'drawn'
p727
I3922
sS'approach'
p728
I1972
sS'quantities'
p729
I4996
sS'co.'
p730
I2204
sS'preserve'
p731
I4234
sS'wage'
p732
I1841
sS'accord'
p733
I556
sS'terms'
p734
I309
sS'extend'
p735
I1830
sS'jose'
p736
I3783
sS'wo'
p737
I2895
sS'edge'
p738
I4698
sS'pepsico'
p739
I4648
sS'weak'
p740
I1513
sS'however'
p741
I310
sS'otherwise'
p742
I3091
sS'southeast'
p743
I2775
sS'loading'
p744
I2358
sS'affiliates'
p745
I2426
sS'extent'
p746
I2229
sS'1.24'
p747
I4714
sS'news'
p748
I535
sS'convertible'
p749
I1144
sS'debt'
p750
I219
sS'improve'
p751
I1022
sS'suggested'
p752
I1853
sS'received'
p753
I637
sS'protect'
p754
I2096
sS'accident'
p755
I3882
sS'prudential'
p756
I3698
sS'met'
p757
I1194
sS'country'
p758
I407
sS'uncertainty'
p759
I2284
sS'heating'
p760
I2580
sS'against'
p761
I108
sS'roach'
p762
I4654
sS'participating'
p763
I3594
sS'arango'
p764
I4576
sS'else'
p765
I3587
sS'und'
p766
I2667
sS'planned'
p767
I751
sS'receives'
p768
I4022
sS'faces'
p769
I2849
sS'contribution'
p770
I1979
sS'expense'
p771
I2390
sS'asked'
p772
I461
sS'negotiation'
p773
I3954
sS'prospect'
p774
I2700
sS'year-end'
p775
I2068
sS'tough'
p776
I2514
sS'appeared'
p777
I1996
sS'had'
p778
I63
sS'inra'
p779
I1876
sS'2nd'
p780
I814
sS'represented'
p781
I2370
sS'tons'
p782
I748
sS'written'
p783
I3202
sS'initiative'
p784
I2109
sS'drilled'
p785
I3556
sS'wider'
p786
I4313
sS'250'
p787
I1673
sS'trust'
p788
I552
sS'half-point'
p789
I3100
sS'telecommunications'
p790
I1221
sS'conference'
p791
I573
sS'iraq'
p792
I1682
sS'jobless'
p793
I3253
sS'beef'
p794
I940
sS'basis'
p795
I520
sS'union'
p796
I284
sS'350,000'
p797
I4290
sS'three'
p798
I126
sS'been'
p799
I86
sS'.'
p800
I2
sS'subsidy'
p801
I1461
sS'commission'
p802
I256
sS'96'
p803
I3077
sS'much'
p804
I397
sS'beet'
p805
I1967
sS'interest'
p806
I134
sS'basic'
p807
I1249
sS'expected'
p808
I123
sS'flexible'
p809
I2944
sS'entered'
p810
I1405
sS'105'
p811
I3996
sS'duties'
p812
I1970
sS'location'
p813
I4989
sS'obtained'
p814
I3545
sS'life'
p815
I832
sS'so-called'
p816
I2430
sS'eastern'
p817
I1418
sS'turned'
p818
I3663
sS'concerning'
p819
I2568
sS'cawl.l'
p820
I4928
sS'mca'
p821
I3966
sS'enterprises'
p822
I1423
sS'requests'
p823
I4244
sS'lift'
p824
I2243
sS'chile'
p825
I3806
sS'doubts'
p826
I4337
sS'deak'
p827
I4543
sS'aviation'
p828
I2187
sS'worked'
p829
I3496
sS'160'
p830
I2842
sS'2.15'
p831
I4970
sS'applied'
p832
I2178
sS'commerce'
p833
I680
sS'gnp'
p834
I1054
sS'has'
p835
I40
sS'publicly'
p836
I3312
sS'newmont'
p837
I2295
sS'lessen'
p838
I4427
sS'economies'
p839
I1798
sS'air'
p840
I876
sS'aim'
p841
I2405
sS'ventures'
p842
I2285
sS'near'
p843
I750
sS'2.11'
p844
I4971
sS'leaves'
p845
I2749
sS'krupp'
p846
I4535
sS'appeals'
p847
I3623
sS'aid'
p848
I1039
sS'property'
p849
I1106
sS'study'
p850
I759
sS'launched'
p851
I1860
sS'seipp'
p852
I4635
sS'seven'
p853
I386
sS'cane'
p854
I2258
sS'metropolitan'
p855
I3591
sS'mexico'
p856
I1420
sS'is'
p857
I23
sS'it'
p858
I13
sS'agenda'
p859
I3389
sS'expenses'
p860
I1099
sS'ii'
p861
I3826
sS'anger'
p862
I4580
sS'experts'
p863
I3072
sS'in'
p864
I5
sS'comparative'
p865
I4775
sS'ic'
p866
I3691
sS'1-1/2'
p867
I3748
sS'if'
p868
I106
sS'grown'
p869
I2631
sS'hong'
p870
I1076
sS'decoupling'
p871
I4653
sS'things'
p872
I2033
sS'make'
p873
I315
sS'cumulative'
p874
I1455
sS'polaroid'
p875
I4838
sS'airport'
p876
I3834
sS'linked'
p877
I2646
sS'complex'
p878
I2453
sS'split'
p879
I322
sS'elders'
p880
I3541
sS'vegetable'
p881
I1228
sS'several'
p882
I517
sS'showing'
p883
I2388
sS'european'
p884
I293
sS'independent'
p885
I1406
sS'nil'
p886
I505
sS'governors'
p887
I4502
sS'unicorp'
p888
I4066
sS'social'
p889
I2219
sS'rail'
p890
I4096
sS'workforce'
p891
I2152
sS'rain'
p892
I2354
sS'hand'
p893
I2523
sS'seamen'
p894
I1274
sS'ownership'
p895
I1650
sS'8.7'
p896
I4308
sS'endotronics'
p897
I4387
sS'guilders'
p898
I1023
sS'opportunity'
p899
I2135
sS'blamed'
p900
I3955
sS'butter'
p901
I4839
sS'upturn'
p902
I3869
sS'ideas'
p903
I4475
sS'shortly'
p904
I2087
sS'1979'
p905
I2872
sS'programs'
p906
I1671
sS'settled'
p907
I3562
sS'vice-president'
p908
I4865
sS'failing'
p909
I3181
sS'suffering'
p910
I4445
sS'deferred'
p911
I2468
sS'institution'
p912
I3681
sS'savings'
p913
I486
sS'materials'
p914
I1463
sS'5.4'
p915
I2422
sS'greatest'
p916
I4801
sS'centres'
p917
I4881
sS'claims'
p918
I1530
sS'the'
p919
I0
sS'800'
p920
I1590
sS'corporate'
p921
I1158
sS'investments'
p922
I1070
sS'left'
p923
I1252
sS'seasonal'
p924
I2216
sS'mclean'
p925
I4720
sS'foreigners'
p926
I4001
sS'quoted'
p927
I842
sS'unemployment'
p928
I948
sS'mills'
p929
I1742
sS'distribute'
p930
I3883
sS'unfair'
p931
I1728
sS'aside'
p932
I3424
sS'proposes'
p933
I2751
sS'grades'
p934
I2114
sS'financially'
p935
I4386
sS'identify'
p936
I2871
sS'incentive'
p937
I3016
sS'salvage'
p938
I4961
sS'campbell'
p939
I4123
sS'citgo'
p940
I4929
sS'yet'
p941
I862
sS'previous'
p942
I342
sS'adding'
p943
I841
sS'buyers'
p944
I1479
sS'smc'
p945
I3370
sS'heyman'
p946
I4542
sS'sunflower'
p947
I3039
sS'phillips'
p948
I2974
sS'devaluation'
p949
I2632
sS'ease'
p950
I1603
sS'royal'
p951
I1131
sS'emphasis'
p952
I3980
sS'amoco'
p953
I3177
sS'wright'
p954
I4930
sS'spread'
p955
I2355
sS'board'
p956
I142
sS'requiring'
p957
I4208
sS'imminent'
p958
I4624
sS'east'
p959
I874
sS'reversal'
p960
I4763
sS'gave'
p961
I870
sS'freedom'
p962
I3510
sS'relating'
p963
I4446
sS'advances'
p964
I2013
sS'comparisons'
p965
I4747
sS'possible'
p966
I483
sS'mideast'
p967
I4344
sS'firmer'
p968
I3280
sS'arab'
p969
I1517
sS'possibly'
p970
I2118
sS'barge'
p971
I3117
sS'judge'
p972
I4847
sS'firmed'
p973
I2941
sS'apart'
p974
I4266
sS'replace'
p975
I2494
sS'1.32'
p976
I4423
sS'advanced'
p977
I1707
sS'58'
p978
I2030
sS'desire'
p979
I3715
sS'county'
p980
I1558
sS'exxon'
p981
I1520
sS'59'
p982
I3464
sS'bpd'
p983
I396
sS'holden-brown'
p984
I3794
sS'55'
p985
I1235
sS'54'
p986
I1907
sS'57'
p987
I1563
sS'56'
p988
I1573
sS'51'
p989
I1065
sS'50'
p990
I323
sS'53'
p991
I1598
sS'52'
p992
I1286
sS'specific'
p993
I1253
sS'steps'
p994
I1674
sS'officer'
p995
I1034
sS'night'
p996
I1206
sS'linotype'
p997
I4975
sS'security'
p998
I798
sS'sometime'
p999
I4966
sS'towards'
p1000
I1413
sS'1.02'
p1001
I4399
sS'awarded'
p1002
I2148
sS'beneficial'
p1003
I2432
sS'right'
p1004
I852
sS'old'
p1005
I1815
sS'deal'
p1006
I488
sS'people'
p1007
I805
sS'successfully'
p1008
I4296
sS'crown'
p1009
I3662
sS'upham'
p1010
I4259
sS'dead'
p1011
I3785
sS'malaysia'
p1012
I1257
sS'donald'
p1013
I3163
sS'meters'
p1014
I3486
sS'election'
p1015
I2695
sS'first-quarter'
p1016
I4482
sS'indirect'
p1017
I3047
sS'pacts'
p1018
I4501
sS'short-term'
p1019
I1006
sS'securities'
p1020
I233
sS'ici'
p1021
I3708
sS'ico'
p1022
I850
sS'icn'
p1023
I4609
sS'for'
p1024
I10
sS'grading'
p1025
I3137
sS'icc'
p1026
I4124
sS'consecutive'
p1027
I3439
sS'balladur'
p1028
I3362
sS'comments'
p1029
I1625
sS'track'
p1030
I4324
sS'asking'
p1031
I3007
sS'bra'
p1032
I3175
sS'fob'
p1033
I2119
sS'denied'
p1034
I1906
sS'offices'
p1035
I1885
sS'participation'
p1036
I1783
sS'core'
p1037
I2492
sS'specifically'
p1038
I4241
sS'expires'
p1039
I2368
sS'ecus'
p1040
I1297
sS'champion'
p1041
I2893
sS'baht'
p1042
I4495
sS'marketing'
p1043
I645
sS'corn'
p1044
I291
sS'6,000'
p1045
I2649
sS'discount'
p1046
I726
sS'restructuring'
p1047
I701
sS'plc'
p1048
I394
sS'psbr'
p1049
I4081
sS'losing'
p1050
I2961
sS'brokerage'
p1051
I1695
sS'post'
p1052
I1506
sS'manufacturing'
p1053
I801
sS'super'
p1054
I4178
sS'properties'
p1055
I855
sS'proceed'
p1056
I2104
sS'chapter'
p1057
I3229
sS'dlrs'
p1058
I12
sS'attacks'
p1059
I2803
sS'dollars'
p1060
I787
sS'months'
p1061
I167
sS'ranges'
p1062
I2038
sS'o'
p1063
I4866
sS'3.25'
p1064
I4082
sS'plus'
p1065
I998
sS'afternoon'
p1066
I1439
sS'horizon'
p1067
I4023
sS'steadily'
p1068
I3655
sS'islands'
p1069
I4110
sS'efforts'
p1070
I1001
sS'slightly'
p1071
I783
sS'jacques'
p1072
I3356
sS'raised'
p1073
I576
sS'coins'
p1074
I2016
sS'pre-tax'
p1075
I982
sS'publishing'
p1076
I3632
sS'formerly'
p1077
I3204
sS'facility'
p1078
I1292
sS'civil'
p1079
I3736
sS'pays'
p1080
I3956
sS'float'
p1081
I2406
sS'obtaining'
p1082
I4009
sS'implications'
p1083
I4619
sS'balances'
p1084
I1877
sS'down'
p1085
I198
sS'complaints'
p1086
I4070
sS'unilever'
p1087
I3384
sS'ussr'
p1088
I1429
sS'raises'
p1089
I730
sS'coastal'
p1090
I2150
sS'balanced'
p1091
I3385
sS'dean'
p1092
I3459
sS'refined'
p1093
I2017
sS'reducing'
p1094
I1456
sS'often'
p1095
I3251
sS'per-share'
p1096
I4596
sS'severely'
p1097
I4115
sS'cleared'
p1098
I4476
sS'21.1'
p1099
I4721
sS'reliance'
p1100
I3498
sS'1.65'
p1101
I4133
sS'segment'
p1102
I3220
sS'support'
p1103
I484
sS'initial'
p1104
I789
sS'legislation'
p1105
I1092
sS'sovereign'
p1106
I4932
sS'nova'
p1107
I2714
sS'class'
p1108
I917
sS'utilicorp'
p1109
I3799
sS'conservation'
p1110
I1960
sS'authorized'
p1111
I1305
sS'way'
p1112
I602
sS'resulted'
p1113
I1595
sS'150,000'
p1114
I2757
sS'bolivia'
p1115
I2382
sS'was'
p1116
I35
sS'war'
p1117
I1135
sS'therefore'
p1118
I2228
sS'lowest'
p1119
I1868
sS'head'
p1120
I1032
sS'medium'
p1121
I2316
sS'economics'
p1122
I2501
sS'form'
p1123
I939
sS'offer'
p1124
I100
sS'penney'
p1125
I4785
sS'becoming'
p1126
I2663
sS'differences'
p1127
I2994
sS'eastman'
p1128
I4322
sS'ford'
p1129
I2582
sS'wireless'
p1130
I2560
sS'failure'
p1131
I1351
sS'lows'
p1132
I3998
sS'customs'
p1133
I3004
sS'claim'
p1134
I4034
sS'sustained'
p1135
I3909
sS'stand'
p1136
I1945
sS'true'
p1137
I3991
sS'analyst'
p1138
I550
sS'delegation'
p1139
I2862
sS'responding'
p1140
I4246
sS'fairchild'
p1141
I1611
sS'mts'
p1142
I2982
sS'departments'
p1143
I3804
sS'bids'
p1144
I1273
sS'maximum'
p1145
I1425
sS'tell'
p1146
I3203
sS'maturing'
p1147
I2707
sS'economic'
p1148
I183
sS'complaint'
p1149
I2673
sS'gould'
p1150
I4363
sS'pesos'
p1151
I1779
sS'3.2'
p1152
I1679
sS'motion'
p1153
I4905
sS'pricing'
p1154
I2071
sS'150'
p1155
I910
sS'adopt'
p1156
I3320
sS'proved'
p1157
I2650
sS'sight'
p1158
I3191
sS'bankamerica'
p1159
I2322
sS'stronger'
p1160
I1888
sS'history'
p1161
I4280
sS'one-third'
p1162
I3558
sS'proven'
p1163
I2482
sS'evidence'
p1164
I2397
sS"''"
p1165
I33
sS'mellon'
p1166
I4298
sS'promised'
p1167
I3992
sS'accounting'
p1168
I1134
sS'ship'
p1169
I1345
sS'petition'
p1170
I3473
sS'dealer'
p1171
I1239
sS'negotiations'
p1172
I627
sS'physical'
p1173
I3386
sS'looked'
p1174
I3848
sS'weakened'
p1175
I4577
sS'no'
p1176
I117
sS'cos'
p1177
I2445
sS'stake'
p1178
I197
sS'when'
p1179
I195
sS'crowns'
p1180
I1043
sS'credibility'
p1181
I4776
sS'negotiators'
p1182
I3582
sS'tin'
p1183
I1327
sS'interested'
p1184
I1363
sS'role'
p1185
I1484
sS'anglo'
p1186
I4860
sS'holding'
p1187
I630
sS'test'
p1188
I1670
sS'trans'
p1189
I3178
sS'kenyan'
p1190
I4314
sS'operators'
p1191
I1799
sS'nv'
p1192
I2274
sS'picture'
p1193
I3939
sS'writedowns'
p1194
I3319
sS'exporter'
p1195
I2450
sS"'s"
p1196
I16
sS'brothers'
p1197
I1380
sS'conditioned'
p1198
I2736
sS'surprise'
p1199
I2948
sS'why'
p1200
I2534
sS'felt'
p1201
I2601
sS'utilities'
p1202
I2303
sS'norstar'
p1203
I2402
sS'montagu'
p1204
I4486
sS'fell'
p1205
I177
sS'intent'
p1206
I1193
sS'exported'
p1207
I1660
sS'authorities'
p1208
I1196
sS'cooper'
p1209
I2491
sS"'m"
p1210
I2962
sS'aware'
p1211
I2964
sS'weekend'
p1212
I1633
sS'transamerica'
p1213
I4460
sS'billion'
p1214
I36
sS'afford'
p1215
I4566
sS'reorganization'
p1216
I2162
sS'longer'
p1217
I1085
sS'glass'
p1218
I3988
sS'circuit'
p1219
I3712
sS'proposed'
p1220
I355
sS'bottom'
p1221
I3265
sS'daily'
p1222
I734
sS'filing'
p1223
I912
sS'premiums'
p1224
I3647
sS'9-13/16'
p1225
I3368
sS'time'
p1226
I243
sS'push'
p1227
I1724
sS'serious'
p1228
I1312
sS'quantity'
p1229
I4803
sS'profits'
p1230
I373
sS'stick'
p1231
I4045
sS'managed'
p1232
I2830
sS'chain'
p1233
I2428
sS'switched'
p1234
I3155
sS'strengthened'
p1235
I4054
sS'pessimistic'
p1236
I4947
sS'global'
p1237
I1576
sS'alternatives'
p1238
I1890
sS'focus'
p1239
I2286
sS'deliveries'
p1240
I1990
sS'integration'
p1241
I4604
sS'manager'
p1242
I1073
sS'microwave'
p1243
I3557
sS'battle'
p1244
I2740
sS'mill'
p1245
I2465
sS'targeted'
p1246
I4084
sS'93'
p1247
I3324
sS'row'
p1248
I1232
sS'certainly'
p1249
I2554
sS'92'
p1250
I2353
sS'depend'
p1251
I2620
sS'zone'
p1252
I1993
sS'tariff'
p1253
I2593
sS'24.9'
p1254
I4705
sS'environment'
p1255
I2672
sS'iraqi'
p1256
I2990
sS'charge'
p1257
I639
sS'compensate'
p1258
I3134
sS'electricity'
p1259
I4564
sS'e.'
p1260
I4099
sS'marks'
p1261
I305
sS'three-for-one'
p1262
I4735
sS'suffered'
p1263
I3138
sS'circumstances'
p1264
I2081
sS'goodyear'
p1265
I3769
sS'southwest'
p1266
I2179
sS'division'
p1267
I597
sS'charles'
p1268
I2615
sS'federation'
p1269
I1973
sS'advantage'
p1270
I2357
sS'pursuant'
p1271
I4764
sS'bulletin'
p1272
I3778
sS'5.8'
p1273
I3167
sS'consolidation'
p1274
I3742
sS'choice'
p1275
I4048
sS'liability'
p1276
I3287
sS'drexel'
p1277
I2753
sS'lynch'
p1278
I1712
sS'advised'
p1279
I3087
sS'cook'
p1280
I4150
sS'trouble'
p1281
I4883
sS'corp.'
p1282
I1958
sS'nor'
p1283
I2524
sS'governments'
p1284
I1776
sS'aggressively'
p1285
I3749
sS'spokesmen'
p1286
I4831
sS'level'
p1287
I329
sS'did'
p1288
I287
sS'103'
p1289
I4287
sS'philippines'
p1290
I1813
sS'permits'
p1291
I3577
sS'proposals'
p1292
I724
sS'democrat'
p1293
I3411
sS'standards'
p1294
I2804
sS'leave'
p1295
I1939
sS'item'
p1296
I2897
sS'domestically'
p1297
I4967
sS'settle'
p1298
I2768
sS'team'
p1299
I3568
sS'quick'
p1300
I3657
sS'div'
p1301
I242
sS'round'
p1302
I1062
sS'end-february'
p1303
I3565
sS'highs'
p1304
I4075
sS'prevent'
p1305
I1469
sS'pork'
p1306
I1635
sS'des'
p1307
I3392
sS'says'
p1308
I208
sS'two-week'
p1309
I3437
sS'trend'
p1310
I1238
sS'dealing'
p1311
I2437
sS'establishing'
p1312
I4621
sS'southwestern'
p1313
I3397
sS'sign'
p1314
I1850
sS'widened'
p1315
I3185
sS'slowed'
p1316
I2921
sS'cost'
p1317
I412
sS'140,000'
p1318
I4258
sS'terminated'
p1319
I2345
sS'reaffirmed'
p1320
I4128
sS'bales'
p1321
I2643
sS'port'
p1322
I845
sS'cargo'
p1323
I1323
sS'adds'
p1324
I3412
sS'stands'
p1325
I2922
sS'24.5'
p1326
I4528
sS'ringgit'
p1327
I2217
sS'assistance'
p1328
I927
sS'contracted'
p1329
I4329
sS'1.87'
p1330
I3694
sS'favour'
p1331
I2727
sS'shares'
p1332
I72
sS'agrees'
p1333
I2393
sS'current'
p1334
I129
sS'goes'
p1335
I2305
sS'coupon'
p1336
I4545
sS'international'
p1337
I112
sS'falling'
p1338
I878
sS'principal'
p1339
I1792
sS'boost'
p1340
I816
sS'amounting'
p1341
I4692
sS'arco'
p1342
I4533
sS'l.p.'
p1343
I2852
sS'supporting'
p1344
I4402
sS'totalling'
p1345
I2105
sS'transportation'
p1346
I1366
sS'heavily'
p1347
I2865
sS'passage'
p1348
I4751
sS'french'
p1349
I415
sS'agreement'
p1350
I107
sS'water'
p1351
I1626
sS'generic'
p1352
I4461
sS'unanimously'
p1353
I3770
sS'groups'
p1354
I1460
sS'address'
p1355
I3347
sS'alone'
p1356
I2218
sS'along'
p1357
I1393
sS'rebates'
p1358
I2879
sS'appears'
p1359
I1834
sS'change'
p1360
I439
sS'wait'
p1361
I2419
sS'passengers'
p1362
I4817
sS'hormuz'
p1363
I3979
sS'zones'
p1364
I3964
sS'accepts'
p1365
I3606
sS'canadian'
p1366
I307
sS'institute'
p1367
I766
sS'shift'
p1368
I2070
sS'cgct'
p1369
I2945
sS'end-january'
p1370
I3737
sS'bow'
p1371
I4544
sS'anacomp'
p1372
I4365
sS'cargill'
p1373
I2476
sS'usually'
p1374
I2969
sS'corp'
p1375
I55
sS'bob'
p1376
I4739
sS'myers'
p1377
I3598
sS'studies'
p1378
I4087
sS"country's"
p1379
I4673
sS'montreal'
p1380
I4170
sS'1.44'
p1381
I4306
sS'lowers'
p1382
I3709
sS'emerge'
p1383
I3871
sS'extra'
p1384
I2797
sS'soybeans'
p1385
I945
sS'lending'
p1386
I779
sS'prefer'
p1387
I4664
sS'marked'
p1388
I3241
sS'flexibility'
p1389
I3160
sS'licensing'
p1390
I4589
sS'individuals'
p1391
I3779
sS'1st'
p1392
I498
sS'chipmakers'
p1393
I4381
sS'mobil'
p1394
I1994
sS'crisis'
p1395
I1499
sS'market'
p1396
I67
sS'hotels'
p1397
I2502
sS'terminal'
p1398
I1835
sS'opposes'
p1399
I4195
sS'indicated'
p1400
I1437
sS'working'
p1401
I865
sS'prove'
p1402
I3504
sS'wickes'
p1403
I3716
sS'positive'
p1404
I1442
sS'continuous'
p1405
I3972
sS'stated'
p1406
I2058
sS'visit'
p1407
I1571
sS'predictions'
p1408
I4088
sS'france'
p1409
I584
sS'insider'
p1410
I3481
sS'live'
p1411
I1964
sS'wood'
p1412
I2923
sS'opposed'
p1413
I1803
sS'peru'
p1414
I1451
sS'criteria'
p1415
I2955
sS'francs'
p1416
I398
sS'australian'
p1417
I755
sS'household'
p1418
I3805
sS'today'
p1419
I114
sS'rainfall'
p1420
I2472
sS'``'
p1421
I34
sS"brazil's"
p1422
I4867
sS'sessions'
p1423
I3910
sS'club'
p1424
I2417
sS'acceptable'
p1425
I3035
sS'apparent'
p1426
I2866
sS'israel'
p1427
I4377
sS'12-1/2'
p1428
I3723
sS'gelco'
p1429
I2995
sS'cautious'
p1430
I2932
sS'jorio'
p1431
I4787
sS'non-member'
p1432
I3665
sS'realty'
p1433
I2917
sS'corresponding'
p1434
I4155
sS'downturn'
p1435
I2987
sS'cases'
p1436
I2584
sS'effort'
p1437
I1282
sS'auditors'
p1438
I3399
sS'behalf'
p1439
I2589
sS'bushels'
p1440
I1497
sS'autumn'
p1441
I3073
sS'valued'
p1442
I1319
sS'edible'
p1443
I3798
sS'tokyo'
p1444
I785
sS'car'
p1445
I1462
sS'originally'
p1446
I1587
sS'ibc'
p1447
I2154
sS'believes'
p1448
I1375
sS'reviews'
p1449
I4841
sS'regions'
p1450
I4118
sS'values'
p1451
I1593
sS'can'
p1452
I269
sS'growing'
p1453
I833
sS'making'
p1454
I553
sS'interstate'
p1455
I2473
sS'fhlbb'
p1456
I4600
sS'newspapers'
p1457
I3240
sS'placements'
p1458
I4655
sS'reviewing'
p1459
I3421
sS'heart'
p1460
I3506
sS'citizens'
p1461
I4978
sS'trump'
p1462
I2515
sS'figure'
p1463
I797
sS'uruguay'
p1464
I2420
sS'predict'
p1465
I3245
sS'december'
p1466
I162
sS'subsidies'
p1467
I1270
sS'sense'
p1468
I3375
sS'agent'
p1469
I3761
sS'heard'
p1470
I3607
sS'dropped'
p1471
I1059
sS'council'
p1472
I502
sS'allowed'
p1473
I1322
sS'spa'
p1474
I3199
sS'occur'
p1475
I2741
sS'winterkill'
p1476
I4671
sS'swedish'
p1477
I1790
sS'requirements'
p1478
I1321
sS'winter'
p1479
I900
sS'attract'
p1480
I4225
sS'discussion'
p1481
I2637
sS'bonds'
p1482
I1215
sS'chemical'
p1483
I888
sS'edouard'
p1484
I4338
sS'sunday'
p1485
I3205
sS'vital'
p1486
I3017
sS's.'
p1487
I2892
sS'fourth'
p1488
I417
sS'holland'
p1489
I4973
sS'ensure'
p1490
I2391
sS'subsidiaries'
p1491
I1391
sS'economy'
p1492
I321
sS'product'
p1493
I570
sS'145'
p1494
I2349
sS'140'
p1495
I2693
sS'huge'
p1496
I1710
sS'may'
p1497
I91
sS'700,000'
p1498
I2694
sS'7-1/2'
p1499
I1934
sS'southern'
p1500
I792
sS'5.2'
p1501
I2573
sS'148'
p1502
I4069
sS'149'
p1503
I4679
sS'applications'
p1504
I2198
sS'membership'
p1505
I3755
sS'4th'
p1506
I165
sS'designed'
p1507
I1700
sS'date'
p1508
I812
sS'such'
p1509
I266
sS'acceptances'
p1510
I3947
sS'data'
p1511
I566
sS'grow'
p1512
I1111
sS'lifting'
p1513
I4025
sS'goal'
p1514
I2394
sS'2.90'
p1515
I4964
sS'stress'
p1516
I4667
sS'acid'
p1517
I4380
sS'natural'
p1518
I633
sS'commodity'
p1519
I671
sS'maybe'
p1520
I4415
sS'futures'
p1521
I471
sS'borrowing'
p1522
I1343
sS'yielding'
p1523
I4980
sS'st'
p1524
I2207
sS'gatt'
p1525
I747
sS'switch'
p1526
I4323
sS'so'
p1527
I387
sS'deposit'
p1528
I1169
sS'african'
p1529
I1171
sS'basket'
p1530
I3674
sS'sa'
p1531
I2176
sS'talk'
p1532
I1819
sS'unsolicited'
p1533
I3151
sS'pipe'
p1534
I4974
sS'repair'
p1535
I4485
sS'undervalued'
p1536
I3296
sS'gradual'
p1537
I3333
sS'pointed'
p1538
I2602
sS'mainly'
p1539
I933
sS'xuto'
p1540
I3281
sS'kong'
p1541
I1040
sS'stability'
p1542
I980
sS'ended'
p1543
I264
sS'statistical'
p1544
I3724
sS'cuts'
p1545
I674
sS'argued'
p1546
I4105
sS'statements'
p1547
I1823
sS'cold'
p1548
I1856
sS'still'
p1549
I312
sS'colorado'
p1550
I3372
sS'86'
p1551
I3148
sS'group'
p1552
I85
sS'how'
p1553
I659
sS'spur'
p1554
I3595
sS'organisation'
p1555
I1396
sS'amounted'
p1556
I2619
sS'forms'
p1557
I4140
sS'window'
p1558
I3028
sS'offers'
p1559
I831
sS'comalco'
p1560
I4551
sS'policy'
p1561
I267
sS'suspension'
p1562
I2686
sS'main'
p1563
I623
sS'norway'
p1564
I2398
sS'texas'
p1565
I614
sS'closure'
p1566
I3297
sS'unspecified'
p1567
I3414
sS'finance'
p1568
I374
sS'views'
p1569
I2843
sS'allocation'
p1570
I4392
sS'refiner'
p1571
I4738
sS'100,000'
p1572
I1334
sS'undisclosed'
p1573
I915
sS'1.58'
p1574
I4746
sS'refineries'
p1575
I2433
sS'nation'
p1576
I1445
sS'barclays'
p1577
I4018
sS'answer'
p1578
I3089
sS'qualified'
p1579
I2535
sS'drilling'
p1580
I1013
sS'half'
p1581
I352
sS'not'
p1582
I45
sS'committees'
p1583
I4496
sS'nov'
p1584
I3357
sS'now'
p1585
I189
sS'provision'
p1586
I853
sS'discuss'
p1587
I973
sS'developments'
p1588
I1777
sS'1.52'
p1589
I4745
sS'14.5'
p1590
I2950
sS'14.4'
p1591
I4107
sS'term'
p1592
I672
sS'14.6'
p1593
I3970
sS'14.1'
p1594
I3828
sS'name'
p1595
I741
sS'stabilize'
p1596
I1854
sS'january'
p1597
I83
sS'quake'
p1598
I4425
sS'drop'
p1599
I448
sS'14.9'
p1600
I4599
sS'47'
p1601
I1703
sS'crushers'
p1602
I3569
sS'possibilities'
p1603
I4802
sS'realistic'
p1604
I4693
sS'bullion'
p1605
I4151
sS'22.4'
p1606
I4537
sS'22.5'
p1607
I3668
sS'entirely'
p1608
I3817
sS'quarter'
p1609
I94
sS'state-run'
p1610
I3851
sS'el'
p1611
I3029
sS'honduras'
p1612
I3776
sS'significantly'
p1613
I1443
sS'latin'
p1614
I1974
sS'equitable'
p1615
I4366
sS'revised'
p1616
I432
sS'availability'
p1617
I4902
sS'ec'
p1618
I199
sS'challenges'
p1619
I4722
sS'begun'
p1620
I2455
sS'year'
p1621
I26
sS'distributor'
p1622
I3254
sS'assumption'
p1623
I3438
sS'happen'
p1624
I3313
sS'summary'
p1625
I3700
sS'revises'
p1626
I4766
sS'encor'
p1627
I3768
sS'intended'
p1628
I1607
sS'canada'
p1629
I257
sS'living'
p1630
I2681
sS'shown'
p1631
I2540
sS'citing'
p1632
I3687
sS'container'
p1633
I2483
sS'opened'
p1634
I1364
sS'3rd'
p1635
I736
sS'factors'
p1636
I974
sS'profit'
p1637
I62
sS'tensions'
p1638
I4552
sS'oklahoma'
p1639
I3146
sS'declaration'
p1640
I4743
sS'factory'
p1641
I4189
sS'looking'
p1642
I1136
sS'attracted'
p1643
I4125
sS'seriously'
p1644
I2386
sS'nominal'
p1645
I1911
sS'emerged'
p1646
I3999
sS'dutch'
p1647
I769
sS'suggesting'
p1648
I4567
sS'formula'
p1649
I3884
sS'receiving'
p1650
I3200
sS'correct'
p1651
I4179
sS'assurance'
p1652
I3931
sS'shows'
p1653
I2092
sS'eagle'
p1654
I4553
sS'after'
p1655
I87
sS'mercantile'
p1656
I2728
sS'curbs'
p1657
I2926
sS'uncertainties'
p1658
I4915
sS'120,000'
p1659
I4524
sS'cars'
p1660
I2555
sS'million'
p1661
I2264
sS'incentives'
p1662
I2153
sS'pumping'
p1663
I4035
sS'possibility'
p1664
I1360
sS'quite'
p1665
I2778
sS'ontario'
p1666
I2503
sS'california'
p1667
I1128
sS'carl'
p1668
I3725
sS'tallow'
p1669
I4071
sS'repurchase'
p1670
I867
sS'ore'
p1671
I1082
sS'marine'
p1672
I1845
sS'lme'
p1673
I2385
sS'card'
p1674
I2616
sS'care'
p1675
I2064
sS'advance'
p1676
I2369
sS'ministry'
p1677
I365
sS'discussing'
p1678
I3625
sS'impose'
p1679
I1968
sS'british'
p1680
I462
sS'english'
p1681
I4700
sS'turn'
p1682
I2115
sS'pickens'
p1683
I3718
sS'place'
p1684
I922
sS'massive'
p1685
I3079
sS'u.n.'
p1686
I4784
sS'think'
p1687
I676
sS'first'
p1688
I92
sS'oper'
p1689
I137
sS'suspend'
p1690
I3339
sS'merrill'
p1691
I1769
sS'revenue'
p1692
I932
sS'pillsbury'
p1693
I3182
sS'ca'
p1694
I3893
sS'one'
p1695
I69
sS'opec'
p1696
I389
sS'americans'
p1697
I4180
sS'fast'
p1698
I2240
sS'suspended'
p1699
I1662
sS'spanish'
p1700
I1909
sS'vote'
p1701
I1212
sS'corporations'
p1702
I2834
sS'suppliers'
p1703
I3584
sS'fight'
p1704
I3198
sS'open'
p1705
I533
sS'tomorrow'
p1706
I723
sS'dole'
p1707
I4417
sS'size'
p1708
I1933
sS'city'
p1709
I826
sS'little'
p1710
I719
sS'necessarily'
p1711
I3371
sS'sheet'
p1712
I1677
sS'district'
p1713
I3230
sS'trillion'
p1714
I3536
sS't'
p1715
I4276
sS'carson'
p1716
I4828
sS'indicate'
p1717
I2199
sS'returns'
p1718
I3231
sS'2'
p1719
I1320
sS'draft'
p1720
I2562
sS'types'
p1721
I4813
sS'moisture'
p1722
I3270
sS'bodies'
p1723
I4987
sS'white'
p1724
I869
sS'speaking'
p1725
I1572
sS'gives'
p1726
I2624
sS'acquisitions'
p1727
I954
sS'mining'
p1728
I760
sS'm0'
p1729
I3707
sS'courier'
p1730
I1502
sS'that'
p1731
I25
sS'season'
p1732
I709
sS'moscow'
p1733
I1507
sS'1.55'
p1734
I3460
sS'alan'
p1735
I4010
sS'broadcast'
p1736
I3618
sS'released'
p1737
I1182
sS'harbour'
p1738
I3803
sS'corning'
p1739
I3741
sS'tehran'
p1740
I4171
sS'thai'
p1741
I1889
sS'clients'
p1742
I2687
sS'representing'
p1743
I2121
sS'than'
p1744
I95
sS'specify'
p1745
I4152
sS'population'
p1746
I4850
sS'11'
p1747
I427
sS'10'
p1748
I135
sS'13'
p1749
I444
sS'12'
p1750
I295
sS'15'
p1751
I185
sS'14'
p1752
I478
sS'17'
p1753
I446
sS'16'
p1754
I472
sS'19'
p1755
I668
sS'18'
p1756
I402
sS'require'
p1757
I1617
sS'transferred'
p1758
I3552
sS'optimism'
p1759
I2873
sS'spokeswoman'
p1760
I1827
sS'future'
p1761
I423
sS'riyals'
p1762
I3973
sS'opens'
p1763
I3544
sS'venture'
p1764
I808
sS'were'
p1765
I59
sS'miles'
p1766
I1926
sS'marines'
p1767
I3911
sS'outcome'
p1768
I2973
sS'and'
p1769
I6
sS'm2'
p1770
I4799
sS'coconut'
p1771
I2705
sS'leigh-pemberton'
p1772
I3928
sS'sao'
p1773
I4019
sS'san'
p1774
I1447
sS'investors'
p1775
I610
sS'remained'
p1776
I1093
sS'shipowners'
p1777
I4661
sS'premier'
p1778
I4674
sS'exceeded'
p1779
I3642
sS'locations'
p1780
I4196
sS'headquarters'
p1781
I3078
sS'prt'
p1782
I3488
sS'say'
p1783
I430
sS'symbion'
p1784
I4111
sS'climbed'
p1785
I3263
sS'10-year'
p1786
I4350
sS'sells'
p1787
I999
sS'recover'
p1788
I2185
sS'saw'
p1789
I1448
sS'any'
p1790
I194
sS'marathon'
p1791
I4011
sS'conversion'
p1792
I2997
sS'one-time'
p1793
I3023
sS'offering'
p1794
I827
sS'exploratory'
p1795
I4126
sS'papandreou'
p1796
I4617
sS'jardine'
p1797
I2497
sS'manufacturers'
p1798
I1457
sS'downwards'
p1799
I4818
sS'consortium'
p1800
I2621
sS'varity'
p1801
I4842
sS'note'
p1802
I127
sS'equipment'
p1803
I721
sS'intends'
p1804
I1466
sS'potential'
p1805
I993
sS'take'
p1806
I273
sS'objective'
p1807
I2341
sS'performance'
p1808
I965
sS'encouraged'
p1809
I3256
sS'600,000'
p1810
I2747
sS'channel'
p1811
I4506
sS'glickman'
p1812
I2844
sS'200'
p1813
I956
sS'begin'
p1814
I1157
sS'sure'
p1815
I2297
sS'iwc'
p1816
I3968
sS'deterioration'
p1817
I3508
sS'normal'
p1818
I1031
sS'buffer'
p1819
I558
sS'revolving'
p1820
I4836
sS'price'
p1821
I98
sS'gencorp'
p1822
I669
sS'paid'
p1823
I615
sS'falls'
p1824
I1119
sS'retaliate'
p1825
I2423
sS'icahn'
p1826
I2136
sS'remarks'
p1827
I1604
sS'upland'
p1828
I3786
sS'america'
p1829
I844
sS'commerzbank'
p1830
I3363
sS'involving'
p1831
I2458
sS'voluntary'
p1832
I4078
sS'axp'
p1833
I4981
sS'democratic'
p1834
I3325
sS'especially'
p1835
I1421
sS'1/2'
p1836
I3822
sS'payable'
p1837
I506
sS'considered'
p1838
I1187
sS'jakarta'
p1839
I4804
sS'average'
p1840
I302
sS'later'
p1841
I574
sS'steady'
p1842
I1610
sS'sale'
p1843
I153
sS'ottawa'
p1844
I4390
sS'occidental'
p1845
I3109
sS'federal'
p1846
I225
sS'procedure'
p1847
I4223
sS'lowering'
p1848
I3449
sS'refining'
p1849
I1594
sS'clearing'
p1850
I2846
sS'reiterated'
p1851
I2839
sS'reed'
p1852
I2913
sS'senior'
p1853
I655
sS'30,000'
p1854
I1824
sS'sigma'
p1855
I4950
sS'liquidity'
p1856
I871
sS'laws'
p1857
I1403
sS'precise'
p1858
I4685
sS'rating'
p1859
I4644
sS'urge'
p1860
I3518
sS'surplus'
p1861
I276
sS'show'
p1862
I509
sS'german'
p1863
I408
sS'cocoas'
p1864
I4805
sS'delta'
p1865
I2902
sS'cheap'
p1866
I2924
sS'friction'
p1867
I3914
sS'commitments'
p1868
I1929
sS'discovered'
p1869
I3447
sS'rep.'
p1870
I2145
sS'privately-held'
p1871
I2731
sS'shoe'
p1872
I3304
sS'tonnage'
p1873
I2597
sS'soviets'
p1874
I1709
sS'injection'
p1875
I4728
sS'fifth'
p1876
I3993
sS'ground'
p1877
I2813
sS'slow'
p1878
I1368
sS'ratio'
p1879
I1737
sS'gulf'
p1880
I456
sS'favor'
p1881
I2493
sS'proportion'
p1882
I3030
sS'3'
p1883
I1203
sS'222'
p1884
I4892
sS'welcomed'
p1885
I3170
sS'only'
p1886
I226
sS'going'
p1887
I896
sS'black'
p1888
I2271
sS'treasury'
p1889
I366
sS'depletion'
p1890
I4080
sS'pegged'
p1891
I4741
sS'congressional'
p1892
I2073
sS'dispute'
p1893
I990
sS'explosion'
p1894
I4097
sS'get'
p1895
I767
sS'contracts'
p1896
I793
sS'assistant'
p1897
I3051
sS'routine'
p1898
I4895
sS'expectation'
p1899
I4190
sS'employers'
p1900
I1720
sS'margoshes'
p1901
I4815
sS'nearly'
p1902
I1007
sS'progress'
p1903
I1344
sS'750,000'
p1904
I4339
sS'invited'
p1905
I3221
sS'awaiting'
p1906
I4198
sS'secondary'
p1907
I3513
sS'prime'
p1908
I489
sS'12.3'
p1909
I4057
sS'regarding'
p1910
I2956
sS'resource'
p1911
I3303
sS'consist'
p1912
I4658
sS'aluminum'
p1913
I2252
sS'resorts'
p1914
I2387
sS'malaysian'
p1915
I1733
sS'12.1'
p1916
I2636
sS'yield'
p1917
I1337
sS'morning'
p1918
I778
sS'paper'
p1919
I918
sS'predicted'
p1920
I1288
sS'6.3'
p1921
I3115
sS'0/92'
p1922
I1256
sS'mineral'
p1923
I2062
sS'where'
p1924
I727
sS'sowings'
p1925
I4270
sS'13.4'
p1926
I4237
sS'12.6'
p1927
I3095
sS'salomon'
p1928
I2407
sS'declared'
p1929
I735
sS'cyacq'
p1930
I1568
sS'milling'
p1931
I3762
sS'publishers'
p1932
I4610
sS'easing'
p1933
I2899
sS'committed'
p1934
I1949
sS'comparable'
p1935
I2717
sS'seat'
p1936
I4951
sS'relative'
p1937
I3141
sS'elected'
p1938
I3409
sS'j.'
p1939
I4789
sS'actively'
p1940
I2689
sS'declares'
p1941
I2438
sS'rmj'
p1942
I4430
sS'stanley'
p1943
I3255
sS'calendar'
p1944
I1208
sS'12.9'
p1945
I4349
sS'concern'
p1946
I908
sS'130,000'
p1947
I4662
sS'tightening'
p1948
I4515
sS'receipt'
p1949
I2576
sS'rumours'
p1950
I3800
sS'mortgage'
p1951
I1230
sS'farmers'
p1952
I563
sS'ways'
p1953
I1276
sS'jumped'
p1954
I3235
sS'review'
p1955
I856
sS'brace'
p1956
I4164
sS'representatives'
p1957
I1367
sS'repeal'
p1958
I4716
sS'forecast'
p1959
I347
sS'procedures'
p1960
I4641
sS'watanabe'
p1961
I3638
sS'outside'
p1962
I1258
sS'bureau'
p1963
I1247
sS'between'
p1964
I157
sS'affecting'
p1965
I2265
sS'import'
p1966
I443
sS'13.2'
p1967
I4568
sS'6.8'
p1968
I3692
sS'across'
p1969
I2259
sS'notice'
p1970
I2838
sS'jobs'
p1971
I1605
sS'august'
p1972
I967
sS'parent'
p1973
I1011
sS'approvals'
p1974
I2159
sS'planes'
p1975
I4371
sS'dome'
p1976
I1325
sS'supermarket'
p1977
I4982
sS'clayton'
p1978
I1750
sS'volcker'
p1979
I1310
sS'awards'
p1980
I4706
sS'implemented'
p1981
I3995
sS'fluctuations'
p1982
I2392
sS'1.70'
p1983
I4508
sS'rapidly'
p1984
I2780
sS'cities'
p1985
I4906
sS'come'
p1986
I694
sS'sumitomo'
p1987
I3497
sS'concentrated'
p1988
I4050
sS'reaction'
p1989
I2516
sS'passenger'
p1990
I3775
sS'retaliatory'
p1991
I3003
sS'acquiring'
p1992
I2020
sS'fit'
p1993
I4047
sS'libya'
p1994
I4753
sS'outflows'
p1995
I4497
sS'many'
p1996
I541
sS'region'
p1997
I1414
sS'10.6'
p1998
I2907
sS'according'
p1999
I500
sS'contract'
p2000
I572
sS'prompted'
p2001
I3551
sS'10.9'
p2002
I3097
sS's'
p2003
I2014
sS'concentrate'
p2004
I2612
sS'iv'
p2005
I1659
sS'10.8'
p2006
I4361
sS'non-oil'
p2007
I3537
sS'holders'
p2008
I691
sS'traded'
p2009
I1191
sS'scope'
p2010
I3402
sS'comes'
p2011
I2447
sS'nearby'
p2012
I2330
sS'duty'
p2013
I1796
sS'among'
p2014
I620
sS'forecasting'
p2015
I3701
sS'permitted'
p2016
I4474
sS'audio/video'
p2017
I3630
sS'tonne'
p2018
I647
sS'effective'
p2019
I513
sS'sixth'
p2020
I4058
sS'period'
p2021
I254
sS'expectations'
p2022
I1493
sS'60'
p2023
I713
sS'61'
p2024
I2443
sS'maintained'
p2025
I2729
sS'63'
p2026
I2371
sS'64'
p2027
I1564
sS'65'
p2028
I1139
sS'66'
p2029
I2325
sS'67'
p2030
I2395
sS'68'
p2031
I2003
sS'69'
p2032
I2031
sS'actually'
p2033
I3088
sS'two-year'
p2034
I3940
sS'considers'
p2035
I3403
sS'moore'
p2036
I3722
sS'considering'
p2037
I1078
sS'save'
p2038
I2746
sS'unusual'
p2039
I4036
sS'saudis'
p2040
I2372
sS'howard'
p2041
I3257
sS'dumping'
p2042
I2234
sS'west'
p2043
I244
sS'informed'
p2044
I3507
sS'airlines'
p2045
I1341
sS'mark'
p2046
I673
sS'hutton'
p2047
I1236
sS'1.28'
p2048
I3781
sS'combined'
p2049
I1048
sS'delay'
p2050
I2209
sS'compromise'
p2051
I1844
sS'technical'
p2052
I1791
sS'carryforwards'
p2053
I2765
sS'covering'
p2054
I2321
sS'500'
p2055
I951
sS'disclosed'
p2056
I890
sS'wants'
p2057
I1101
sS'direction'
p2058
I2051
sS'enable'
p2059
I2097
sS'shopping'
p2060
I4686
sS'shortages'
p2061
I4581
sS'sites'
p2062
I4740
sS'sectors'
p2063
I1735
sS'offered'
p2064
I577
sS'formed'
p2065
I1397
sS'dates'
p2066
I4790
sS'reaching'
p2067
I3322
sS'dramatic'
p2068
I4742
sS'audi'
p2069
I4572
sS'minister'
p2070
I274
sS'treatment'
p2071
I2876
sS'servicing'
p2072
I3685
sS'careful'
p2073
I4012
sS'yugoslav'
p2074
I3592
sS'former'
p2075
I1159
sS'those'
p2076
I455
sS'case'
p2077
I959
sS'hughes'
p2078
I1242
sS'nogales'
p2079
I4767
sS'renault'
p2080
I2327
sS'developing'
p2081
I1110
sS'these'
p2082
I409
sS'operational'
p2083
I4910
sS'worried'
p2084
I4129
sS'cash'
p2085
I170
sS"n't"
p2086
I538
sS'w'
p2087
I3376
sS'paulo'
p2088
I4918
sS'warning'
p2089
I3299
sS'ongoing'
p2090
I3730
sS'lire'
p2091
I2985
sS'policies'
p2092
I949
sS'promising'
p2093
I3787
sS'newspaper'
p2094
I1223
sS'situation'
p2095
I817
sS'converted'
p2096
I2784
sS'sorghum'
p2097
I1809
sS'trader'
p2098
I1912
sS'exercisable'
p2099
I4100
sS'aluminium'
p2100
I1306
sS'trades'
p2101
I4181
sS'eventually'
p2102
I2416
sS'ultramar'
p2103
I4507
sS'strait'
p2104
I2801
sS'engaged'
p2105
I3915
sS'telephone'
p2106
I1172
sS'ferruzzi'
p2107
I2042
sS'refinery'
p2108
I863
sS'middle'
p2109
I1473
sS'issuance'
p2110
I4699
sS'pressing'
p2111
I3862
sS'30.3'
p2112
I4880
sS'attributed'
p2113
I2095
sS'13.8'
p2114
I3283
sS'13.9'
p2115
I3475
sS'13.6'
p2116
I2537
sS'iowa'
p2117
I2439
sS'refiners'
p2118
I2306
sS'13.5'
p2119
I2651
sS'technology'
p2120
I892
sS'allegheny'
p2121
I1407
sS'13.0'
p2122
I4984
sS'movements'
p2123
I1913
sS'bags'
p2124
I1067
sS'different'
p2125
I1496
sS'missiles'
p2126
I1838
sS'develop'
p2127
I1896
sS'11.9'
p2128
I4101
sS'11.4'
p2129
I2635
sS'pay'
p2130
I173
sS'granted'
p2131
I1440
sS'11.7'
p2132
I3118
sS'11.0'
p2133
I4342
sS'11.1'
p2134
I3032
sS'same'
p2135
I301
sS'11.3'
p2136
I2875
sS'17.3'
p2137
I4113
sS'17.1'
p2138
I4260
sS'speech'
p2139
I1794
sS'17.4'
p2140
I4416
sS'buys'
p2141
I740
sS'grain'
p2142
I275
sS'17.8'
p2143
I3702
sS'document'
p2144
I4405
sS'sterling'
p2145
I688
sS'oil'
p2146
I60
sS'ecuadorean'
p2147
I4440
sS'singapore'
p2148
I1279
sS'boosted'
p2149
I2280
sS'350'
p2150
I1883
sS'5-1/2'
p2151
I4854
sS'director'
p2152
I804
sS'dollar/yen'
p2153
I4636
sS'running'
p2154
I1914
sS'harris'
p2155
I2089
sS'advertisement'
p2156
I4199
sS'serves'
p2157
I4291
sS'changing'
p2158
I2957
sS'anticipated'
p2159
I1793
sS'totally'
p2160
I4114
sS'railway'
p2161
I2696
sS'sumita'
p2162
I1278
sS'a/s'
p2163
I3269
sS'drain'
p2164
I2403
sS'largely'
p2165
I1165
sS'charges'
p2166
I1035
sS'floor'
p2167
I1686
sS'12.2'
p2168
I3548
sS'wedge'
p2169
I4917
sS'rains'
p2170
I1602
sS'severe'
p2171
I2211
sS'without'
p2172
I648
sS'solve'
p2173
I2898
sS'relief'
p2174
I1555
sS'components'
p2175
I1955
sS'na'
p2176
I2819
sS'termination'
p2177
I2890
sS'allocated'
p2178
I3576
sS'allowance'
p2179
I2861
sS'1.78'
p2180
I3901
sS'ccc'
p2181
I1259
sS'charged'
p2182
I2464
sS'gdp'
p2183
I1141
sS'summer'
p2184
I1562
sS'franklin'
p2185
I3008
sS'livestock'
p2186
I2155
sS'210'
p2187
I4668
sS'pakistan'
p2188
I1919
sS'being'
p2189
I351
sS'money'
p2190
I163
sS'adjustments'
p2191
I2100
sS'rest'
p2192
I1348
sS'unclear'
p2193
I4760
sS'ounces'
p2194
I884
sS'diplomats'
p2195
I1871
sS'pty'
p2196
I2951
sS'reality'
p2197
I4882
sS'xon'
p2198
I3404
sS'weekly'
p2199
I1152
sS'announcement'
p2200
I1072
sS'gaviria'
p2201
I4353
sS'renewed'
p2202
I1969
sS'residents'
p2203
I3688
sS'swire'
p2204
I3476
sS'thinking'
p2205
I4884
sS'rose'
p2206
I111
sS'conclude'
p2207
I4713
sS'seems'
p2208
I2373
sS'except'
p2209
I2275
sS'improvement'
p2210
I1102
sS'authorised'
p2211
I3639
sS'setting'
p2212
I1928
sS'bloc'
p2213
I4694
sS'4'
p2214
I1761
sS'constant'
p2215
I4372
sS'republic'
p2216
I1963
sS'extensive'
p2217
I3246
sS'structural'
p2218
I3472
sS'malcolm'
p2219
I3194
sS'momentum'
p2220
I3033
sS'scheduled'
p2221
I799
sS'negotiating'
p2222
I1580
sS'around'
p2223
I217
sS'nec'
p2224
I4108
sS'francaise'
p2225
I4623
sS'rules'
p2226
I762
sS'amc'
p2227
I1630
sS'delhi'
p2228
I2530
sS'virginia'
p2229
I3489
sS'dart'
p2230
I1765
sS'early'
p2231
I343
sS'buyback'
p2232
I4227
sS'inflation'
p2233
I442
sS'traffic'
p2234
I2046
sS'preference'
p2235
I2230
sS'pesetas'
p2236
I4406
sS'world'
p2237
I140
sS'railroad'
p2238
I3292
sS'accepted'
p2239
I1125
sS'disappointed'
p2240
I3247
sS'threaten'
p2241
I4210
sS'ruled'
p2242
I2028
sS'standstill'
p2243
I4431
sS'pounds'
p2244
I2312
sS'patrick'
p2245
I4079
sS'hotel'
p2246
I2177
sS'1.06'
p2247
I4773
sS'62'
p2248
I2867
sS'yearly'
p2249
I3852
sS"'ve"
p2250
I2085
sS'annually'
p2251
I2346
sS'chamber'
p2252
I3830
sS'benefit'
p2253
I1227
sS'grants'
p2254
I4182
sS'either'
p2255
I1284
sS'qtly'
p2256
I320
sS'always'
p2257
I2484
sS'completely'
p2258
I3614
sS'output'
p2259
I271
sS'downward'
p2260
I2093
sS'revision'
p2261
I2521
sS'reduced'
p2262
I679
sS'satisfactory'
p2263
I1986
sS'tvx'
p2264
I4340
sS'1.64'
p2265
I4626
sS'conditional'
p2266
I4130
sS'competition'
p2267
I1038
sS'allied-lyons'
p2268
I3142
sS'calculated'
p2269
I2364
sS'magma'
p2270
I4051
sS'table'
p2271
I3538
sS'intend'
p2272
I1985
sS'bigger'
p2273
I4810
sS'narrowed'
p2274
I2548
sS'feared'
p2275
I4419
sS'gross'
p2276
I820
sS'kaiser'
p2277
I4724
sS'swaps'
p2278
I2942
sS'confirm'
p2279
I4645
sS'sudan'
p2280
I3831
sS'henderson'
p2281
I3844
sS'h.k'
p2282
I2509
sS'lend'
p2283
I2989
sS'recorded'
p2284
I1503
sS'dudley'
p2285
I3874
sS'legal'
p2286
I1444
sS'conservative'
p2287
I2399
sS'pioneer'
p2288
I2409
sS'ltd.'
p2289
I3664
sS'deficit'
p2290
I230
sS'provides'
p2291
I2025
sS'lockout'
p2292
I4977
sS'moderate'
p2293
I1935
sS'turkey'
p2294
I1454
sS'welcome'
p2295
I4279
sS'wheat'
p2296
I160
sS'scientific'
p2297
I3236
sS'power'
p2298
I795
sS'airways'
p2299
I4037
sS'liquid'
p2300
I3081
sS'industrialized'
p2301
I3052
sS'equivalent'
p2302
I1216
sS'fitness'
p2303
I4953
sS'broker'
p2304
I2706
sS'slaughter'
p2305
I2863
sS'notably'
p2306
I4687
sS'credits'
p2307
I807
sS'meets'
p2308
I4213
sS'bbl'
p2309
I4334
sS'thailand'
p2310
I1398
sS'norcros'
p2311
I3406
sS'manufactures'
p2312
I3532
sS'manufacturer'
p2313
I2513
sS'on'
p2314
I15
sS'stone'
p2315
I4302
sS'central'
p2316
I224
sS'dixons'
p2317
I952
sS'renew'
p2318
I4923
sS'package'
p2319
I1120
sS'of'
p2320
I3
sS'industry'
p2321
I166
sS'sri'
p2322
I2498
sS'discussed'
p2323
I1759
sS'meal'
p2324
I2506
sS'8.9'
p2325
I3888
sS"'d"
p2326
I4816
sS'airline'
p2327
I1688
sS'sachs'
p2328
I2365
sS'act'
p2329
I1014
sS'mixed'
p2330
I2900
sS'invested'
p2331
I4389
sS'tariffs'
p2332
I806
sS'mean'
p2333
I1525
sS'provisional'
p2334
I1200
sS'confidence'
p2335
I2082
sS'rapeseed'
p2336
I2608
sS'heavy'
p2337
I829
sS'outlook'
p2338
I996
sS'decreased'
p2339
I3326
sS'whites'
p2340
I3483
sS'instruments'
p2341
I2531
sS'officially'
p2342
I2824
sS'rising'
p2343
I690
sS'determine'
p2344
I1891
sS'parties'
p2345
I1901
sS'speculated'
p2346
I2547
sS'accumulated'
p2347
I4303
sS'2000'
p2348
I3651
sS'lifts'
p2349
I4955
sS'your'
p2350
I3894
sS'intervention'
p2351
I413
sS'mart'
p2352
I2512
sS'fill'
p2353
I4646
sS'area'
p2354
I631
sS'assumed'
p2355
I4675
sS'n.y.'
p2356
I3282
sS'there'
p2357
I136
sS'unleaded'
p2358
I4205
sS'alleged'
p2359
I2532
sS'start'
p2360
I703
sS'9.4'
p2361
I3746
sS'low'
p2362
I454
sS'lot'
p2363
I1560
sS'brazilian'
p2364
I843
sS'valley'
p2365
I2222
sS'g-7'
p2366
I4807
sS'g-6'
p2367
I2766
sS'g-5'
p2368
I3982
sS'31.7'
p2369
I4530
sS'media'
p2370
I3031
sS'750'
p2371
I2710
sS'complete'
p2372
I1189
sS'enough'
p2373
I966
sS'fundamentals'
p2374
I2253
sS'frank'
p2375
I4797
sS'bauxite'
p2376
I4352
sS'acre'
p2377
I3531
sS'pleased'
p2378
I4429
sS'delayed'
p2379
I1545
sS'strikes'
p2380
I2245
sS'cabinet'
p2381
I2249
sS'12.0'
p2382
I3549
sS'warns'
p2383
I4319
sS'40,000'
p2384
I2479
sS'two-thirds'
p2385
I3009
sS'elimination'
p2386
I4669
sS'technologies'
p2387
I2183
sS'trying'
p2388
I1492
sS'with'
p2389
I31
sS'buying'
p2390
I567
sS'faster'
p2391
I2440
sS'october'
p2392
I718
sS'arranged'
p2393
I3788
sS'improved'
p2394
I897
sS'circulation'
p2395
I1965
sS'monopoly'
p2396
I4707
sS'default'
p2397
I3925
sS'wholesale'
p2398
I1514
sS'12.7'
p2399
I4718
sS'poison'
p2400
I4651
sS'itc'
p2401
I3080
sS'miguel'
p2402
I2617
sS'cyclops'
p2403
I753
sS'margaret'
p2404
I4863
sS'1.76'
p2405
I4808
sS'politically'
p2406
I3948
sS'builders'
p2407
I4582
sS'agree'
p2408
I1361
sS'strongly'
p2409
I1938
sS'engine'
p2410
I3415
sS'attacked'
p2411
I4927
sS'ab'
p2412
I1430
sS'600'
p2413
I1655
sS'ag'
p2414
I749
sS'cinema'
p2415
I4908
sS'certain'
p2416
I618
sS'cbi'
p2417
I4875
sS'am'
p2418
I1533
sS'sales'
p2419
I80
sS'deep'
p2420
I4466
sS'an'
p2421
I43
sS'navy'
p2422
I3617
sS'britain'
p2423
I716
sS'at'
p2424
I27
sS'file'
p2425
I2668
sS'qtrly'
p2426
I2018
sS'importing'
p2427
I3832
sS'nickel'
p2428
I3520
sS'moves'
p2429
I1271
sS'portland'
p2430
I3015
sS'film'
p2431
I4144
sS'processed'
p2432
I3857
sS'4.5'
p2433
I1628
sS'again'
p2434
I838
sS'4.7'
p2435
I2925
sS'managing'
p2436
I2235
sS'4.1'
p2437
I2043
sS'4.0'
p2438
I1981
sS'4.3'
p2439
I2733
sS'4.2'
p2440
I1892
sS'personnel'
p2441
I4145
sS'storage'
p2442
I1656
sS'4.8'
p2443
I2850
sS'event'
p2444
I3895
sS'rubber'
p2445
I857
sS'field'
p2446
I1087
sS'valid'
p2447
I3750
sS'5'
p2448
I1848
sS'you'
p2449
I905
sS'forcing'
p2450
I4060
sS'25.6'
p2451
I4876
sS'thousand'
p2452
I4983
sS'paddy'
p2453
I4755
sS'poor'
p2454
I1467
sS'requested'
p2455
I2466
sS'4,000'
p2456
I3040
sS'congress'
p2457
I707
sS'separate'
p2458
I1920
sS'12.4'
p2459
I3829
sS'nazer'
p2460
I2790
sS'merchants'
p2461
I4734
sS'35,000'
p2462
I3000
sS'includes'
p2463
I239
sS'n.j.'
p2464
I4024
sS'important'
p2465
I1177
sS'peak'
p2466
I2499
sS'accounts'
p2467
I1201
sS'included'
p2468
I743
sS'creditor'
p2469
I3161
sS'stocks'
p2470
I434
sS'stakes'
p2471
I3019
sS'building'
p2472
I1336
sS'booked'
p2473
I3772
sS'individual'
p2474
I2452
sS'assets'
p2475
I288
sS'calls'
p2476
I1355
sS'invest'
p2477
I1910
sS'cpb'
p2478
I4238
sS'cpc'
p2479
I1488
sS'speculators'
p2480
I4949
sS'resale'
p2481
I4689
sS'directors'
p2482
I756
sS'passed'
p2483
I2151
sS'u'
p2484
I2930
sS'satisfied'
p2485
I2507
sS'previously-announced'
p2486
I2769
sS'restricted'
p2487
I2725
sS'apparel'
p2488
I4297
sS'shortfall'
p2489
I1846
sS'overseas'
p2490
I1045
sS'starting'
p2491
I1661
sS'original'
p2492
I1902
sS'external'
p2493
I1342
sS'represent'
p2494
I2882
sS'all'
p2495
I139
sS'consider'
p2496
I889
sS'chinese'
p2497
I1546
sS'caused'
p2498
I947
sS'suburban'
p2499
I4418
sS'lack'
p2500
I2335
sS'dollar'
p2501
I109
sS'none'
p2502
I4261
sS'month'
p2503
I156
sS'diesel'
p2504
I4494
sS'unrest'
p2505
I4539
sS'deadline'
p2506
I2471
sS'danforth'
p2507
I4719
sS'restated'
p2508
I1415
sS'talks'
p2509
I259
sS'follow'
p2510
I1880
sS'take-up'
p2511
I4131
sS'settlement'
p2512
I1148
sS'decisions'
p2513
I2161
sS'october/december'
p2514
I4851
sS'reluctant'
p2515
I3833
sS'content'
p2516
I3112
sS'yasuhiro'
p2517
I3083
sS'tv'
p2518
I4441
sS'pledged'
p2519
I3448
sS'acting'
p2520
I3249
sS'thursday'
p2521
I1527
sS'to'
p2522
I4
sS'program'
p2523
I313
sS'dairy'
p2524
I2052
sS'present'
p2525
I641
sS'alberta'
p2526
I3514
sS'safety'
p2527
I3268
sS'lawmakers'
p2528
I3018
sS'midwest'
p2529
I3274
sS'traditionally'
p2530
I3677
sS'ghana'
p2531
I3024
sS'activities'
p2532
I1294
sS'calif.'
p2533
I2927
sS'premium'
p2534
I1915
sS'7'
p2535
I1755
sS'divisions'
p2536
I3620
sS'very'
p2537
I437
sS'18.25'
p2538
I4215
sS'me'
p2539
I3316
sS'worst'
p2540
I2767
sS'decide'
p2541
I1754
sS'fall'
p2542
I232
sS'16.5'
p2543
I3795
sS'difference'
p2544
I3226
sS'condition'
p2545
I1675
sS'learjet'
p2546
I4933
sS'norfolk'
p2547
I4265
sS'cable'
p2548
I1033
sS'--'
p2549
I236
sS'sluggish'
p2550
I2881
sS'list'
p2551
I2307
sS'joined'
p2552
I2659
sS'large'
p2553
I561
sS'5.1'
p2554
I2336
sS'sand'
p2555
I4052
sS'adjust'
p2556
I3744
sS'saudi'
p2557
I652
sS'small'
p2558
I781
sS'programme'
p2559
I2720
sS'ten'
p2560
I2127
sS'tea'
p2561
I2276
sS'revlon'
p2562
I3183
sS'190'
p2563
I4708
sS'3.16'
p2564
I4777
sS'petro-canada'
p2565
I3727
sS'past'
p2566
I592
sS'winds'
p2567
I3646
sS'rate'
p2568
I93
sS'sunflowerseed'
p2569
I4690
sS'design'
p2570
I3711
sS'enhancement'
p2571
I1805
sS'pass'
p2572
I3001
sS'link'
p2573
I3377
sS'further'
p2574
I211
sS'attributable'
p2575
I3156
sS'investment'
p2576
I193
sS'returned'
p2577
I2360
sS'belief'
p2578
I3219
sS'eia'
p2579
I2827
sS'what'
p2580
I457
sS'defence'
p2581
I2194
sS'stood'
p2582
I1291
sS'consumers'
p2583
I835
sS'brackets'
p2584
I3675
sS'sun'
p2585
I1612
sS'section'
p2586
I2590
sS'associate'
p2587
I4367
sS'brief'
p2588
I3802
sS'37.5'
p2589
I4143
sS'bbls'
p2590
I4016
sS'importer'
p2591
I4695
sS'version'
p2592
I4555
sS'1.22'
p2593
I4348
sS'certificates'
p2594
I875
sS'single'
p2595
I1647
sS'public'
p2596
I406
sS'contrast'
p2597
I4008
sS'movement'
p2598
I2146
sS'distillate'
p2599
I2570
sS'message'
p2600
I4618
sS'full'
p2601
I384
sS'iran'
p2602
I1137
sS'installations'
p2603
I4986
sS'ranged'
p2604
I2918
sS'presence'
p2605
I3164
sS'depreciation'
p2606
I1763
sS'component'
p2607
I4647
sS'heller'
p2608
I2929
sS'bullish'
p2609
I2688
sS'hours'
p2610
I1399
sS'citicorp'
p2611
I1947
sS'operating'
p2612
I349
sS'excess'
p2613
I1426
sS'non-performing'
p2614
I3571
sS'november'
p2615
I710
sS'strong'
p2616
I464
sS'solid'
p2617
I4512
sS'900'
p2618
I3143
sS'naval'
p2619
I4376
sS'ahead'
p2620
I1018
sS'houses'
p2621
I1412
sS'margin'
p2622
I2762
sS'losses'
p2623
I450
sS'allows'
p2624
I3259
sS'asa'
p2625
I2946
sS'experience'
p2626
I3349
sS'spotlight'
p2627
I4622
sS'prior'
p2628
I205
sS'amount'
p2629
I503
sS'breakdown'
p2630
I2754
sS'advertising'
p2631
I4825
sS'published'
p2632
I2010
sS'action'
p2633
I435
sS'narrow'
p2634
I1904
sS'options'
p2635
I930
sS'240'
p2636
I3237
sS'tax-free'
p2637
I3542
sS'via'
p2638
I1565
sS'followed'
p2639
I1485
sS'disposition'
p2640
I4601
sS'family'
p2641
I1816
sS'taxation'
p2642
I4637
sS'marginal'
p2643
I3605
sS'semiconductors'
p2644
I1687
sS'africa'
p2645
I866
sS'thatcher'
p2646
I3726
sS'10,000'
p2647
I2257
sS'tendered'
p2648
I1711
sS'aimed'
p2649
I1188
sS'concerted'
p2650
I4632
sS'fla.'
p2651
I3941
sS'establish'
p2652
I2206
sS'sarney'
p2653
I4503
sS'shareholders'
p2654
I223
sS'twa'
p2655
I745
sS'takes'
p2656
I1524
sS'pinola'
p2657
I4840
sS'0'
p2658
I4068
sS'hole'
p2659
I4326
sS'objectives'
p2660
I4869
sS'coupled'
p2661
I3416
sS'petroleum'
p2662
I382
sS'two'
p2663
I75
sS'damaged'
p2664
I2457
sS'oecd'
p2665
I1328
sS'competitor'
p2666
I4286
sS'6'
p2667
I1434
sS'taken'
p2668
I758
sS'markets'
p2669
I261
sS'more'
p2670
I89
sS'flat'
p2671
I2053
sS'restraint'
p2672
I3683
sS'diamond'
p2673
I2293
sS'door'
p2674
I4531
sS'weakening'
p2675
I4848
sS'beghin-say'
p2676
I4401
sS'company'
p2677
I42
sS'allied-signal'
p2678
I4447
sS'corrected'
p2679
I2853
sS'flag'
p2680
I4578
sS'controlling'
p2681
I3041
sS'basically'
p2682
I3626
sS'broke'
p2683
I2814
sS'particular'
p2684
I1812
sS'known'
p2685
I1704
sS'retained'
p2686
I2290
sS'objections'
p2687
I3745
sS'factories'
p2688
I4454
sS'producing'
p2689
I919
sS'keeping'
p2690
I2538
sS'hour'
p2691
I4368
sS'klm'
p2692
I2854
sS'created'
p2693
I2662
sS'two-day'
p2694
I3648
sS'friendly'
p2695
I3358
sS'remain'
p2696
I599
sS'arrangements'
p2697
I2583
sS'nine'
p2698
I228
sS'sent'
p2699
I1760
sS'morgan'
p2700
I1505
sS'escort'
p2701
I4505
sS'dec'
p2702
I864
sS'oilfield'
p2703
I4103
sS'nino'
p2704
I4584
sS'pick'
p2705
I3809
sS'purchases'
p2706
I687
sS'finland'
p2707
I3431
sS'prompt'
p2708
I3053
sS'brown'
p2709
I1665
sS'pont'
p2710
I4656
sS'17.6'
p2711
I3206
sS'share'
p2712
I61
sS'accept'
p2713
I1225
sS'boycott'
p2714
I4173
sS'states'
p2715
I240
sS'pesch'
p2716
I2359
sS'minimum'
p2717
I1116
sS'numbers'
p2718
I3364
sS'purchased'
p2719
I1005
sS'kenya'
p2720
I2758
sS'sharp'
p2721
I754
sS'protein'
p2722
I4073
sS'f.'
p2723
I3666
sS'presently'
p2724
I4219
sS'5.0'
p2725
I3260
sS'information'
p2726
I987
sS'needs'
p2727
I1175
sS'5.3'
p2728
I2296
sS'court'
p2729
I677
sS'5.5'
p2730
I1732
sS'5.6'
p2731
I3166
sS'5.7'
p2732
I2998
sS'rather'
p2733
I1003
sS'5.9'
p2734
I3168
sS'breaking'
p2735
I4432
sS'att'
p2736
I2906
sS'dismissed'
p2737
I4341
sS'13.3'
p2738
I3373
sS'transfers'
p2739
I4786
sS'earnings'
p2740
I148
sS'buenos'
p2741
I3490
sS'reject'
p2742
I3450
sS'bit'
p2743
I2683
sS'13.1'
p2744
I2809
sS'csr'
p2745
I1666
sS'plant'
p2746
I546
sS'quoting'
p2747
I4216
sS'plans'
p2748
I297
sS'inflationary'
p2749
I4038
sS'minstar'
p2750
I3876
sS'cts/shr'
p2751
I4218
sS'expenditures'
p2752
I3218
sS'reflect'
p2753
I924
sS'retirement'
p2754
I2772
sS'interior'
p2755
I3332
sS'fe'
p2756
I1657
sS'coming'
p2757
I1318
sS'bangemann'
p2758
I4546
sS'pat'
p2759
I4325
sS'appealed'
p2760
I4304
sS'lanka'
p2761
I2737
sS'response'
p2762
I828
sS'furniture'
p2763
I4154
sS'a'
p2764
I8
sS'portuguese'
p2765
I4400
sS'short'
p2766
I711
sS'cooperatives'
p2767
I4268
sS'onto'
p2768
I4007
sS'register'
p2769
I4443
sS'overnight'
p2770
I1615
sS'rallied'
p2771
I4294
sS'coal'
p2772
I1197
sS'broadcasting'
p2773
I1651
sS'fundamental'
p2774
I3131
sS'11.5'
p2775
I2110
sS'banks'
p2776
I152
sS'seaway'
p2777
I3277
sS'amstutz'
p2778
I1869
sS'turnover'
p2779
I658
sS'replied'
p2780
I3172
sS'help'
p2781
I385
sS'schillings'
p2782
I4613
sS'september'
p2783
I499
sS'developed'
p2784
I1908
sS'soon'
p2785
I840
sS'fabrics'
p2786
I4903
sS'trade'
p2787
I58
sS'held'
p2788
I419
sS'attitude'
p2789
I4487
sS'industrial'
p2790
I350
sS'through'
p2791
I263
sS'11.2'
p2792
I2874
sS'committee'
p2793
I401
sS'signs'
p2794
I1384
sS'navigation'
p2795
I4519
sS'itt'
p2796
I4305
sS'suffer'
p2797
I3515
sS'its'
p2798
I24
sS'24'
p2799
I586
sS'25'
p2800
I299
sS'26'
p2801
I692
sS'27'
p2802
I582
sS'20'
p2803
I187
sS'21'
p2804
I877
sS'22'
p2805
I551
sS'23'
p2806
I629
sS'exact'
p2807
I3346
sS'border'
p2808
I4592
sS'caesars'
p2809
I1211
sS'28'
p2810
I353
sS'29'
p2811
I872
sS'pct'
p2812
I14
sS'seasonally'
p2813
I946
sS'late'
p2814
I514
sS'resort'
p2815
I4853
sS'absence'
p2816
I4355
sS'reuters'
p2817
I359
sS'systems'
p2818
I474
sS'honeywell'
p2819
I2462
sS'argentina'
p2820
I2128
sS'might'
p2821
I440
sS'argentine'
p2822
I1762
sS'pursue'
p2823
I3050
sS'good'
p2824
I543
sS'return'
p2825
I764
sS'calm'
p2826
I4682
sS'evaluate'
p2827
I4409
sS'seeking'
p2828
I772
sS'food'
p2829
I663
sS'propose'
p2830
I2351
sS'17.5'
p2831
I3207
sS'floating'
p2832
I3159
sS'number'
p2833
I532
sS'underground'
p2834
I3315
sS'360,000'
p2835
I4615
sS'hundred'
p2836
I4936
sS'foot'
p2837
I4585
sS'attending'
p2838
I4678
sS'yr'
p2839
I2069
sS'bancorp'
p2840
I1500
sS'association'
p2841
I431
sS'easily'
p2842
I4183
sS'woolworth'
p2843
I2223
sS'algerian'
p2844
I4378
sS'450,000'
p2845
I4540
sS'fully'
p2846
I1161
sS'intervene'
p2847
I1683
sS'micro'
p2848
I4907
sS'someone'
p2849
I4611
sS'stopped'
p2850
I2618
sS'repayment'
p2851
I2738
sS'found'
p2852
I1487
sS'telegraph'
p2853
I3946
sS'ports'
p2854
I1729
sS'allis-chalmers'
p2855
I2656
sS'barrels'
p2856
I418
sS'week'
p2857
I104
sS'taft'
p2858
I938
sS'england'
p2859
I640
sS'chevron'
p2860
I4525
sS'weight'
p2861
I2644
sS'house'
p2862
I381
sS'energy'
p2863
I339
sS'hard'
p2864
I1244
sS'reduce'
p2865
I475
sS'idea'
p2866
I2124
sS'him'
p2867
I1982
sS'slowdown'
p2868
I4273
sS'extended'
p2869
I1046
sS'expect'
p2870
I667
sS'unilateral'
p2871
I4472
sS'operation'
p2872
I957
sS'beyond'
p2873
I2474
sS'insurance'
p2874
I626
sS'really'
p2875
I2074
sS'20.0'
p2876
I4569
sS'deals'
p2877
I2225
sS'20.3'
p2878
I4239
sS'funding'
p2879
I2314
sS'carriers'
p2880
I4717
sS's.a.'
p2881
I3065
sS'p'
p2882
I3027
sS'20.8'
p2883
I4768
sS'20.9'
p2884
I4393
sS'robert'
p2885
I1542
sS'since'
p2886
I231
sS'projected'
p2887
I1433
sS'douglas'
p2888
I4455
sS'research'
p2889
I824
sS'1.75'
p2890
I2039
sS'participants'
p2891
I2544
sS'health'
p2892
I1060
sS'hill'
p2893
I2805
sS'shipment'
p2894
I901
sS'plunged'
p2895
I4437
sS'fujitsu'
p2896
I2289
sS'issue'
p2897
I379
sS'1.79'
p2898
I4039
sS'backing'
p2899
I3885
sS'assist'
p2900
I4952
sS'wisconsin'
p2901
I4172
sS'bass'
p2902
I1788
sS'risen'
p2903
I1940
sS'lawrence'
p2904
I4146
sS'friday'
p2905
I644
sS'lesser'
p2906
I4800
sS'basf'
p2907
I4407
sS'extraordinary'
p2908
I531
sS'reason'
p2909
I1243
sS'base'
p2910
I507
sS'proxy'
p2911
I4156
sS'members'
p2912
I560
sS'put'
p2913
I593
sS'rises'
p2914
I834
sS'beginning'
p2915
I1037
sS'speculation'
p2916
I1333
sS'sown'
p2917
I3997
sS'producers'
p2918
I311
sS'owners'
p2919
I2614
sS'benefits'
p2920
I1298
sS'launch'
p2921
I3608
sS'computers'
p2922
I3066
sS'success'
p2923
I1956
sS"year's"
p2924
I4614
sS'sheikh'
p2925
I4250
sS'american'
p2926
I168
sS'fruit'
p2927
I3819
sS'expecting'
p2928
I3123
sS'businessmen'
p2929
I2380
sS'threat'
p2930
I2044
sS'automobile'
p2931
I4251
sS'gardner'
p2932
I4670
sS'fcoj'
p2933
I4696
sS"government's"
p2934
I4649
sS'fallen'
p2935
I2116
sS'financed'
p2936
I4331
sS'bushel'
p2937
I2287
sS'feed'
p2938
I1025
sS'copper'
p2939
I770
sS'major'
p2940
I176
sS'consultations'
p2941
I3609
sS'usda'
p2942
I367
sS'protectionist'
p2943
I1722
sS'upper'
p2944
I3084
sS'feel'
p2945
I2288
sS'dutch/shell'
p2946
I3074
sS'reflected'
p2947
I1280
sS'mannesmann'
p2948
I2910
sS'linking'
p2949
I4269
sS'feet'
p2950
I873
sS'13,000'
p2951
I4027
sS'heinz'
p2952
I3875
sS'done'
p2953
I1480
sS'elevator'
p2954
I3975
sS'colombia'
p2955
I1140
sS'1987/88'
p2956
I883
sS'slower'
p2957
I3092
sS'wages'
p2958
I3482
sS'causing'
p2959
I2752
sS'protectionism'
p2960
I2266
sS'arbitration'
p2961
I4638
sS'heads'
p2962
I4570
sS'utilization'
p2963
I4811
sS'introduction'
p2964
I2480
sS'leading'
p2965
I757
sS'st.'
p2966
I3157
sS'kidder'
p2967
I4028
sS'suitor'
p2968
I4879
sS'internal'
p2969
I2133
sS'least'
p2970
I578
sS'180'
p2971
I3731
sS'station'
p2972
I2048
sS'tighter'
p2973
I4688
sS'statement'
p2974
I253
sS'ton'
p2975
I1124
sS'nigeria'
p2976
I2510
sS'scheme'
p2977
I1942
sS'piedmont'
p2978
I1066
sS'hillards'
p2979
I3824
sS'ecuador'
p2980
I818
sS'lease'
p2981
I2137
sS'selling'
p2982
I664
sS'option'
p2983
I891
sS'relationship'
p2984
I3949
sS'behind'
p2985
I1641
sS'gephardt'
p2986
I4633
sS'sosnoff'
p2987
I1435
sS'park'
p2988
I4467
sS'immediate'
p2989
I1470
sS'appreciation'
p2990
I2444
sS'480'
p2991
I3934
sS'part'
p2992
I360
sS'jordan'
p2993
I2760
sS'repurchases'
p2994
I3103
sS'dominican'
p2995
I4347
sS'alusuisse'
p2996
I3599
sS'believe'
p2997
I977
sS'convinced'
p2998
I3340
sS'champlin'
p2999
I3102
sS'carryforward'
p3000
I2577
sS'king'
p3001
I3276
sS'financing'
p3002
I731
sS'1986/87'
p3003
I521
sS'rebound'
p3004
I3835
sS'iranian'
p3005
I1614
sS'state-owned'
p3006
I1691
sS'double'
p3007
I2189
sS"japan's"
p3008
I4477
sS'aims'
p3009
I3418
sS'dlrs/bbl'
p3010
I2639
sS'determined'
p3011
I1736
sS'emirates'
p3012
I3350
sS'store'
p3013
I1899
sS'certs'
p3014
I4029
sS'elaborate'
p3015
I2279
sS'toward'
p3016
I1851
sS'adversely'
p3017
I3713
sS'liabilities'
p3018
I1599
sS'uranium'
p3019
I3780
sS'outstanding'
p3020
I333
sS'strengthen'
p3021
I2456
sS'imports'
p3022
I209
sS'philippine'
p3023
I1951
sS'roughly'
p3024
I3619
sS'juice'
p3025
I3387
sS'substantial'
p3026
I1058
sS'injunction'
p3027
I4375
sS'bhp'
p3028
I2267
sS'confirms'
p3029
I4602
sS'orders'
p3030
I931
sS'vulnerable'
p3031
I4252
sS'sell'
p3032
I245
sS'mountain'
p3033
I4509
sS'wilson'
p3034
I2864
sS'u.s'
p3035
I378
sS'built'
p3036
I2788
sS'zero'
p3037
I2193
sS'depending'
p3038
I2527
sS'trip'
p3039
I3656
sS'discounts'
p3040
I4122
sS'speculative'
p3041
I2581
sS'scott'
p3042
I3173
sS'officers'
p3043
I3610
sS'targets'
p3044
I1532
sS'majority'
p3045
I1156
sS'norwegian'
p3046
I3383
sS'costs'
p3047
I358
sS'grew'
p3048
I1486
sS'chairman'
p3049
I260
sS'finding'
p3050
I3076
sS'bahrain'
p3051
I2916
sS'u.k'
p3052
I1543
sS'hutchison'
p3053
I4157
sS'signup'
p3054
I3907
sS'miyazawa'
p3055
I1339
sS'province'
p3056
I2451
sS'play'
p3057
I3113
sS'added'
p3058
I155
sS'electric'
p3059
I1207
sS'1.38'
p3060
I3837
sS'intervened'
p3061
I1746
sS'goldman'
p3062
I3127
sS'approves'
p3063
I2680
sS'measures'
p3064
I675
sS'reach'
p3065
I1108
sS'quota'
p3066
I568
sS'77'
p3067
I2326
sS'most'
p3068
I328
sS'75'
p3069
I1145
sS'74'
p3070
I2975
sS'shareholder'
p3071
I803
sS'plan'
p3072
I298
sS'significant'
p3073
I913
sS'70'
p3074
I972
sS'services'
p3075
I449
sS'kay'
p3076
I4639
sS'extremely'
p3077
I2138
sS'approved'
p3078
I492
sS'esso'
p3079
I3272
sS'appear'
p3080
I2967
sS'salary'
p3081
I4586
sS'arabian'
p3082
I3391
sS'laboratories'
p3083
I2983
sS'schlumberger'
p3084
I2711
sS'dealers'
p3085
I326
sS'mobile'
p3086
I4676
sS'1.27'
p3087
I3443
sS'clear'
p3088
I1260
sS'lehman'
p3089
I1567
sS'cover'
p3090
I1153
sS'yeutter'
p3091
I887
sS'km'
p3092
I2603
sS'1.26'
p3093
I4919
sS'traditional'
p3094
I2117
sS'concessions'
p3095
I4083
sS'three-month'
p3096
I2564
sS'1.25'
p3097
I1849
sS'barrel'
p3098
I642
sS'usual'
p3099
I4456
sS'amusements'
p3100
I3916
sS'institutions'
p3101
I1618
sS'favorable'
p3102
I3764
sS'sector'
p3103
I487
sS'thomas'
p3104
I3394
sS'particularly'
p3105
I1209
sS'somewhat'
p3106
I3760
sS'gold'
p3107
I270
sS'gates'
p3108
I3763
sS'obligations'
p3109
I2221
sS'sanwa'
p3110
I4468
sS'bearish'
p3111
I3944
sS'indicates'
p3112
I4921
sS'session'
p3113
I955
sS'businesses'
p3114
I953
sS'freight'
p3115
I1522
sS'cds'
p3116
I4478
sS'carefully'
p3117
I3703
sS'excessive'
p3118
I2647
sS'fine'
p3119
I3250
sS'find'
p3120
I1166
sS'completion'
p3121
I1290
sS'indicator'
p3122
I2200
sS'regulations'
p3123
I2244
sS'depended'
p3124
I4511
sS'northern'
p3125
I989
sS'favourable'
p3126
I2764
sS'merger'
p3127
I241
sS'stockholders'
p3128
I1714
sS'distributed'
p3129
I2669
sS'farms'
p3130
I3897
sS'failed'
p3131
I1250
sS'matheson'
p3132
I3777
sS'pretty'
p3133
I4253
sS'equity'
p3134
I737
sS'iea'
p3135
I3682
sS'8'
p3136
I2002
sS'cuba'
p3137
I3107
sS'rotterdam'
p3138
I2638
sS'merged'
p3139
I2112
sS'harvested'
p3140
I2943
sS'toronto'
p3141
I2836
sS'lombard'
p3142
I4914
sS'his'
p3143
I286
sS'hit'
p3144
I821
sS'gains'
p3145
I565
sS'28.5'
p3146
I4520
sS'meanwhile'
p3147
I2598
sS'dependent'
p3148
I4165
sS'wagner'
p3149
I2460
sS'zambia'
p3150
I2366
sS'express'
p3151
I975
sS'kind'
p3152
I2697
sS'trees'
p3153
I3288
sS'cheaper'
p3154
I2884
sS'feels'
p3155
I4356
sS'stg'
p3156
I130
sS'5,000'
p3157
I2634
sS'actions'
p3158
I1721
sS'closely'
p3159
I2059
sS'reporters'
p3160
I712
sS'1.81'
p3161
I4778
sS'during'
p3162
I281
sS'bilateral'
p3163
I1678
sS'1.85'
p3164
I3959
sS';'
p3165
I17
sS'merchandise'
p3166
I2558
sS'resolve'
p3167
I1952
sS'progressive'
p3168
I1941
sS'interbank'
p3169
I2658
sS'calny'
p3170
I3943
sS'generally'
p3171
I1557
sS'retaliation'
p3172
I1385
sS'remove'
p3173
I2774
sS'oppenheimer'
p3174
I3529
sS'six-month'
p3175
I4795
sS'banking'
p3176
I479
sS'interim'
p3177
I2261
sS'common'
p3178
I164
sS'allocations'
p3179
I4469
sS'activity'
p3180
I1167
sS'switzerland'
p3181
I2270
sS'x'
p3182
I4677
sS'river'
p3183
I1481
sS'conagra'
p3184
I4311
sS'restaurants'
p3185
I2254
sS'satisfy'
p3186
I4247
sS'900,000'
p3187
I3432
sS'set'
p3188
I265
sS'achieved'
p3189
I2375
sS'declines'
p3190
I1842
sS'kilo'
p3191
I2732
sS'uses'
p3192
I4588
sS'kilos'
p3193
I2408
sS'see'
p3194
I571
sS'defense'
p3195
I1713
sS'sec'
p3196
I1489
sS'are'
p3197
I54
sS'sea'
p3198
I1057
sS'polish'
p3199
I4969
sS'2.3'
p3200
I1331
sS'2.2'
p3201
I1248
sS'2.1'
p3202
I1578
sS'2.0'
p3203
I1857
sS'2.7'
p3204
I1837
sS'2.6'
p3205
I1401
sS'2.5'
p3206
I765
sS'2.4'
p3207
I1535
sS'evaluation'
p3208
I4954
sS'crushing'
p3209
I4439
sS'degree'
p3210
I3469
sS'mcivor'
p3211
I4209
sS'speed'
p3212
I3957
sS'icco'
p3213
I1170
sS'currently'
p3214
I583
sS'diluted'
p3215
I1042
sS'tamura'
p3216
I4988
sS'heading'
p3217
I4593
sS'drafting'
p3218
I4451
sS'unions'
p3219
I2224
sS'won'
p3220
I1716
sS'various'
p3221
I1374
sS'electrical'
p3222
I3753
sS'managers'
p3223
I2111
sS'16.7'
p3224
I3563
sS'pc'
p3225
I4616
sS'probably'
p3226
I784
sS'revaluation'
p3227
I3820
sS'conditions'
p3228
I628
sS'risks'
p3229
I3075
sS'europe'
p3230
I815
sS'korea'
p3231
I809
sS'recently'
p3232
I800
sS'creating'
p3233
I4013
sS'end-1986'
p3234
I4301
sS'initially'
p3235
I2337
sS'dividends'
p3236
I1090
sS'sold'
p3237
I337
sS'attention'
p3238
I2823
sS'foote'
p3239
I4965
sS'aircraft'
p3240
I1706
sS'succeed'
p3241
I3398
sS'coffee'
p3242
I268
sS'opposition'
p3243
I1828
sS'cut-price'
p3244
I4558
sS'dividend'
p3245
I145
sS'understanding'
p3246
I3217
sS'mid-february'
p3247
I4779
sS'both'
p3248
I279
sS'c'
p3249
I1313
sS'last'
p3250
I53
sS'reverse'
p3251
I2139
sS'license'
p3252
I3846
sS'appropriations'
p3253
I3169
sS'18.5'
p3254
I3337
sS'annual'
p3255
I290
sS'foreign'
p3256
I110
sS'sensitive'
p3257
I4885
sS'connection'
p3258
I2047
sS'became'
p3259
I2914
sS'1.62'
p3260
I3499
sS'1.60'
p3261
I2242
sS'long-term'
p3262
I928
sS'reply'
p3263
I4042
sS'whole'
p3264
I1431
sS'load'
p3265
I3152
sS'yards'
p3266
I4663
sS'supply'
p3267
I348
sS'reasons'
p3268
I2712
sS'sweet'
p3269
I3466
sS'loan'
p3270
I324
sS'others'
p3271
I1299
sS'community'
p3272
I491
sS'lake'
p3273
I1917
sS'16.4'
p3274
I4750
sS'simply'
p3275
I2831
sS'gallon'
p3276
I3810
sS'vessel'
p3277
I2283
sS'maekawa'
p3278
I3735
sS'throughout'
p3279
I2060
sS'mission'
p3280
I4433
sS'expensive'
p3281
I2477
sS'platinum'
p3282
I3210
sS'decline'
p3283
I414
sS'consuming'
p3284
I3227
sS'described'
p3285
I2313
sS'raise'
p3286
I589
sS'westinghouse'
p3287
I4044
sS'monthly'
p3288
I1150
sS'create'
p3289
I1879
sS'acceptance'
p3290
I3572
sS'political'
p3291
I1000
sS'due'
p3292
I213
sS'strategy'
p3293
I1510
sS'whom'
p3294
I4332
sS'reduction'
p3295
I822
sS'dropping'
p3296
I3863
sS'coarse'
p3297
I3752
sS'maintenance'
p3298
I2877
sS'ocean'
p3299
I4228
sS'adoption'
p3300
I3912
sS'widening'
p3301
I4444
sS'meeting'
p3302
I161
sS'attractive'
p3303
I2377
sS'firm'
p3304
I344
sS'generating'
p3305
I4829
sS'pdvsa'
p3306
I2065
sS'partly'
p3307
I1162
sS'chemlawn'
p3308
I1311
sS'algeria'
p3309
I2054
sS'fire'
p3310
I1875
sS'organisations'
p3311
I4343
sS'gas'
p3312
I238
sS'39'
p3313
I1767
sS'priced'
p3314
I1811
sS'gao'
p3315
I3516
sS'fund'
p3316
I662
sS'whatever'
p3317
I4498
sS'engage'
p3318
I4991
sS'determination'
p3319
I3242
sS'representative'
p3320
I1254
sS'bidding'
p3321
I2134
sS'demand'
p3322
I306
sS'prices'
p3323
I79
sS'gaf'
p3324
I2215
sS'despite'
p3325
I657
sS'presented'
p3326
I2664
sS'struck'
p3327
I3821
sS'redemption'
p3328
I4620
sS'pact'
p3329
I426
sS'georgia'
p3330
I3147
sS'uncertain'
p3331
I2770
sS'look'
p3332
I1446
sS'grains'
p3333
I1586
sS'talking'
p3334
I1905
sS'frozen'
p3335
I2655
sS'enrollment'
p3336
I4330
sS'bill'
p3337
I376
sS'mln'
p3338
I9
sS'budget'
p3339
I405
sS'governor'
p3340
I1697
sS'kodak'
p3341
I3365
sS'33'
p3342
I961
sS'while'
p3343
I178
sS'seed'
p3344
I4463
sS'replaced'
p3345
I4000
sS'32'
p3346
I1315
sS'fleet'
p3347
I1726
sS'deregulation'
p3348
I3180
sS'mitchell'
p3349
I4587
sS'guide'
p3350
I4937
sS'exclude'
p3351
I1365
sS'real'
p3352
I522
sS'19.6'
p3353
I4479
sS'pound'
p3354
I1026
sS'costly'
p3355
I3453
sS'ivorian'
p3356
I3732
sS'portugal'
p3357
I2528
sS'century'
p3358
I3936
sS'cents'
p3359
I557
sS'averaging'
p3360
I3352
sS'von'
p3361
I4200
sS'motors'
p3362
I1636
sS'19.9'
p3363
I4014
sS'stations'
p3364
I2952
sS'shamrock'
p3365
I2338
sS'rio'
p3366
I2424
sS'itself'
p3367
I1436
sS'ready'
p3368
I2098
sS'aspects'
p3369
I4819
sS'ortner'
p3370
I3902
sS'leaving'
p3371
I2586
sS'neutral'
p3372
I3860
sS'examine'
p3373
I4074
sS'increased'
p3374
I316
sS'ethylene'
p3375
I4956
sS'santos'
p3376
I1601
sS'borg-warner'
p3377
I1441
sS'italy'
p3378
I1052
sS'amo'
p3379
I4723
sS'grant'
p3380
I3010
sS'mint'
p3381
I3729
sS'discounted'
p3382
I4093
sS'minorities'
p3383
I3554
sS'textile'
p3384
I2845
sS'21.7'
p3385
I4931
sS'bancroft'
p3386
I3773
sS'virtually'
p3387
I2978
sS'widely'
p3388
I2467
sS'9'
p3389
I1672
sS'survey'
p3390
I1268
sS'advise'
p3391
I4657
sS'conflict'
p3392
I3223
sS'higher'
p3393
I235
sS'development'
p3394
I393
sS'used'
p3395
I595
sS'temporary'
p3396
I1104
sS'affairs'
p3397
I1984
sS'bonus'
p3398
I964
sS'comprehensive'
p3399
I3305
sS'recovered'
p3400
I3627
sS'yesterday'
p3401
I278
sS'flows'
p3402
I2627
sS'moment'
p3403
I2125
sS'levels'
p3404
I403
sS'moving'
p3405
I1753
sS'purpose'
p3406
I3413
sS'louis'
p3407
I3994
sS'tenders'
p3408
I2263
sS'cyl'
p3409
I3314
sS'brussels'
p3410
I3960
sS'tobacco'
p3411
I3455
sS'recent'
p3412
I335
sS'15.0'
p3413
I3509
sS'lower'
p3414
I207
sS'echlin'
p3415
I4598
sS'15.4'
p3416
I3855
sS'15.5'
p3417
I3135
sS'15.6'
p3418
I3611
sS'15.7'
p3419
I4282
sS'15.8'
p3420
I1817
sS'15.9'
p3421
I3612
sS'poland'
p3422
I3243
sS'spent'
p3423
I2545
sS'analysis'
p3424
I4521
sS'obviously'
p3425
I4726
sS'person'
p3426
I4134
sS'royalty'
p3427
I3436
sS'machinery'
p3428
I1873
sS'withdraw'
p3429
I2642
sS'swiss'
p3430
I1008
sS'organization'
p3431
I914
sS'spend'
p3432
I2604
sS'stem'
p3433
I4830
sS'17.50'
p3434
I3301
sS'ambassador'
p3435
I3458
sS'265'
p3436
I4229
sS'year-on-year'
p3437
I1224
sS'2.75'
p3438
I4526
sS'polled'
p3439
I3232
sS'removed'
p3440
I4904
sS'named'
p3441
I1459
sS'competitive'
p3442
I1050
sS'quarters'
p3443
I1898
sS'belgium'
p3444
I2250
sS'denman'
p3445
I4940
sS'questions'
p3446
I3187
sS'using'
p3447
I1353
sS'taiwan'
p3448
I515
sS'cargoes'
p3449
I1696
sS'plains'
p3450
I3971
sS'timber'
p3451
I4703
sS'profitable'
p3452
I1747
sS'cut'
p3453
I215
sS'helping'
p3454
I3739
sS'also'
p3455
I71
sS'informal'
p3456
I2475
sS'advisers'
p3457
I3049
sS'workers'
p3458
I776
sS'danger'
p3459
I4032
sS'guaranteed'
p3460
I2761
sS'signals'
p3461
I4488
sS'source'
p3462
I1132
sS'labour'
p3463
I1472
sS'questioned'
p3464
I4061
sS'sydney'
p3465
I4628
sS'violations'
p3466
I3342
sS'guarantees'
p3467
I1698
sS'administrative'
p3468
I4147
sS'remaining'
p3469
I960
sS'surprised'
p3470
I3328
sS'build'
p3471
I1730
sS'...'
p3472
I304
sS'customers'
p3473
I1213
sS'australia'
p3474
I685
sS'march'
p3475
I77
sS'amended'
p3476
I3904
sS'emergency'
p3477
I1870
sS'demands'
p3478
I2396
sS'big'
p3479
I1370
sS'bid'
p3480
I332
sS'competing'
p3481
I2742
sS'matters'
p3482
I2960
sS'redeem'
p3483
I4040
sS'conable'
p3484
I2743
sS'bag'
p3485
I4890
sS'aerospace'
p3486
I2248
sS'fortune'
p3487
I4935
sS'buyout'
p3488
I1081
sS'9,000'
p3489
I4277
sS'projects'
p3490
I1583
sS'formal'
p3491
I1859
sS'outright'
p3492
I2666
sS'imposed'
p3493
I1975
sS'excluding'
p3494
I1631
sS'follows'
p3495
I1408
sS'signal'
p3496
I2487
sS'eep'
p3497
I1427
sS'underway'
p3498
I4249
sS'separately'
p3499
I2931
sS'communications'
p3500
I1107
sS'continue'
p3501
I340
sS'yields'
p3502
I1349
sS'400,000'
p3503
I2539
sS'16.8'
p3504
I3679
sS'healthy'
p3505
I3145
sS'privately'
p3506
I3067
sS'consensus'
p3507
I3524
sS'methods'
p3508
I3174
sS'senate'
p3509
I926
sS'spring'
p3510
I1718
sS'some'
p3511
I124
sS'back'
p3512
I581
sS'3.6'
p3513
I1881
sS'3.7'
p3514
I1950
sS'3.4'
p3515
I1882
sS'3.5'
p3516
I1283
sS'palm'
p3517
I995
sS'3.3'
p3518
I1814
sS'3.0'
p3519
I2129
sS'3.1'
p3520
I1998
sS'sprint'
p3521
I4629
sS'7,500'
p3522
I4275
sS'redstone'
p3523
I2578
sS'3.8'
p3524
I2174
sS'3.9'
p3525
I2239
sS'delivered'
p3526
I2716
sS'qatar'
p3527
I2878
sS'scale'
p3528
I2684
sS'dlrs/shr'
p3529
I4499
sS'decision'
p3530
I540
sS'though'
p3531
I1417
sS'exceeding'
p3532
I3588
sS'per'
p3533
I84
sS'epac'
p3534
I3465
sS'sugarcane'
p3535
I4527
sS'u.s.-japanese'
p3536
I4909
sS'eliminate'
p3537
I3649
sS'slash'
p3538
I4590
sS'feedgrains'
p3539
I2292
sS'wholly-owned'
p3540
I2585
sS'be'
p3541
I29
sS'claimed'
p3542
I4896
sS'tankers'
p3543
I2164
sS'run'
p3544
I1640
sS'retailers'
p3545
I3899
sS'300'
p3546
I916
sS'fomc'
p3547
I4457
sS'processing'
p3548
I1504
sS'continuing'
p3549
I936
sS'use'
p3550
I585
sS'refused'
p3551
I2055
sS'restrictive'
p3552
I3650
sS'step'
p3553
I1561
sS'bp'
p3554
I1015
sS'redundancies'
p3555
I3289
sS'santa'
p3556
I1362
sS'divest'
p3557
I3616
sS'feb'
p3558
I411
sS'article'
p3559
I4248
sS'carbide'
p3560
I3903
sS'by'
p3561
I28
sS'troops'
p3562
I4414
sS'react'
p3563
I3659
sS'pipeline'
p3564
I986
sS'goods'
p3565
I460
sS'certificate'
p3566
I1887
sS'anything'
p3567
I2090
sS'76'
p3568
I2411
sS'conrac'
p3569
I2622
sS'completing'
p3570
I4333
sS'plaza'
p3571
I2933
sS'papua'
p3572
I4727
sS'range'
p3573
I782
sS'ounce'
p3574
I1285
sS'beans'
p3575
I2885
sS'together'
p3576
I1387
sS'blocked'
p3577
I4161
sS'73'
p3578
I2141
sS'replacement'
p3579
I4574
sS'6-1/8'
p3580
I4922
sS'block'
p3581
I1296
sS'72'
p3582
I1864
sS'triton'
p3583
I4547
sS'disclosure'
p3584
I3896
sS'12,000'
p3585
I4020
sS'71'
p3586
I2374
sS'doubled'
p3587
I3676
sS'into'
p3588
I169
sS'within'
p3589
I537
sS'transamerican'
p3590
I3920
sS'indications'
p3591
I3195
sS'usa'
p3592
I3983
sS'athens'
p3593
I4968
sS'nothing'
p3594
I2004
sS'appropriate'
p3595
I1770
sS'primarily'
p3596
I2201
sS'inventories'
p3597
I1930
sS'bankruptcy'
p3598
I1953
sS'canal'
p3599
I2821
sS'unavailable'
p3600
I3566
sS'statistics'
p3601
I705
sS'computer'
p3602
I811
sS'bangladesh'
p3603
I2799
sS'kiichi'
p3604
I2894
sS'spending'
p3605
I733
sS'measured'
p3606
I3048
sS'question'
p3607
I1185
sS'long'
p3608
I490
sS'ordered'
p3609
I3011
sS'pharmaceuticals'
p3610
I3733
sS'1.50'
p3611
I2113
sS'1.51'
p3612
I3790
sS'bayer'
p3613
I4364
sS'79'
p3614
I3419
sS'1.54'
p3615
I4957
sS'suit'
p3616
I1516
sS'forward'
p3617
I1642
sS'subsequent'
p3618
I4153
sS'keating'
p3619
I3433
sS':'
p3620
I122
sS'mounting'
p3621
I4868
sS'oilseeds'
p3622
I2674
sS'manufacture'
p3623
I4283
sS'considerably'
p3624
I4710
sS'harvesting'
p3625
I3600
sS'elsewhere'
p3626
I3306
sS'registered'
p3627
I1623
sS'year-ago'
p3628
I1151
sS'slump'
p3629
I3307
sS'specialty'
p3630
I2029
sS'semi-annual'
p3631
I3756
sS'hoped'
p3632
I2040
sS'1985/86'
p3633
I880
sS'atlantic'
p3634
I1923
sS'pacific'
p3635
I518
sS'preussag'
p3636
I4769
sS'filed'
p3637
I1214
sS'hopes'
p3638
I1585
sS'subsidiary'
p3639
I319
sS'line'
p3640
I579
sS'considerable'
p3641
I2794
sS'raising'
p3642
I1324
sS'posted'
p3643
I1088
sS'cif'
p3644
I3110
sS'cie'
p3645
I3308
sS'up'
p3646
I76
sS'us'
p3647
I950
sS'par'
p3648
I3393
sS'maturity'
p3649
I2579
sS"'re"
p3650
I1245
sS'exploration'
p3651
I617
sS'midday'
p3652
I3717
sS'uk'
p3653
I2208
sS'sum'
p3654
I3186
sS'reviewed'
p3655
I4357
sS'viacom'
p3656
I1622
sS'rha'
p3657
I4104
sS'usx'
p3658
I2277
sS'similar'
p3659
I1036
sS'called'
p3660
I656
sS'bell'
p3661
I2015
sS'associated'
p3662
I1544
sS'defined'
p3663
I4091
sS'metal'
p3664
I1338
sS'influence'
p3665
I2739
sS'commissioner'
p3666
I3505
sS'metals'
p3667
I1394
sS'reopening'
p3668
I4938
sS'engineering'
p3669
I1474
sS'associates'
p3670
I1548
sS'curb'
p3671
I2086
sS'550'
p3672
I3854
sS'rally'
p3673
I2698
sS'cotton'
p3674
I909
sS'rainbow'
p3675
I2442
sS'amounts'
p3676
I1373
sS'treasurer'
p3677
I4191
sS'entity'
p3678
I3969
sS'fears'
p3679
I2299
sS'backs'
p3680
I4972
sS'preventing'
p3681
I4990
sS'application'
p3682
I1302
sS'accounted'
p3683
I1676
sS'weinberger'
p3684
I3271
sS'income'
p3685
I317
sS'department'
p3686
I172
sS'manhattan'
p3687
I2347
sS'unadjusted'
p3688
I2158
sS'draw'
p3689
I2840
sS'elements'
p3690
I4873
sS'users'
p3691
I3462
sS'provided'
p3692
I1009
sS'aggregates'
p3693
I4796
sS'kansas'
p3694
I2036
sS'problems'
p3695
I714
sS'prepared'
p3696
I1123
sS'william'
p3697
I2006
sS'generated'
p3698
I4159
sS'allowing'
p3699
I2021
sS'hanson'
p3700
I2685
sS'cooperate'
p3701
I1921
sS'sides'
p3702
I1946
sS'structure'
p3703
I2007
sS'kwacha'
p3704
I3807
sS'ago'
p3705
I368
sS'bases'
p3706
I4832
sS'land'
p3707
I978
sS'e'
p3708
I4939
sS'18.7'
p3709
I4901
sS'margins'
p3710
I1743
sS'vice'
p3711
I968
sS'required'
p3712
I976
sS'backed'
p3713
I2748
sS'bankers'
p3714
I773
sS'edward'
p3715
I3636
sS'responded'
p3716
I3603
sS'depth'
p3717
I2815
sS'summit'
p3718
I3573
sS'cenergy'
p3719
I3343
sS'dot'
p3720
I2557
sS'begins'
p3721
I3098
sS'dinars'
p3722
I4834
sS'walker'
p3723
I4770
sS'fresh'
p3724
I2066
sS'harcourt'
p3725
I3105
sS'joining'
p3726
I4510
sS'requires'
p3727
I2400
sS'having'
p3728
I1388
sS'once'
p3729
I1649
sS'delaware'
p3730
I3728
sS'partial'
p3731
I3153
sS'plantations'
p3732
I4464
sS'advisory'
p3733
I2963
sS'issued'
p3734
I591
sS'results'
p3735
I294
sS'gy'
p3736
I3120
sS'existing'
p3737
I1074
sS'ge'
p3738
I3101
sS'efficient'
p3739
I4891
sS'luxembourg'
p3740
I4754
sS'broader'
p3741
I3917
sS'served'
p3742
I4465
sS'go'
p3743
I742
sS'gm'
p3744
I2704
sS'adjustment'
p3745
I1300
sS'15,000'
p3746
I2832
sS'centers'
p3747
I2566
sS'issues'
p3748
I744
sS'seemed'
p3749
I3405
sS'excludes'
p3750
I534
sS'simon'
p3751
I3628
sS'turkish'
p3752
I1893
sS'disposal'
p3753
I2130
sS'concerned'
p3754
I1482
sS'shanghai'
p3755
I3300
sS'send'
p3756
I3811
sS'reductions'
p3757
I2103
sS'nippon'
p3758
I1262
sS'critical'
p3759
I3900
sS'84'
p3760
I3629
sS'excluded'
p3761
I3224
sS'stable'
p3762
I1347
sS'quarterly'
p3763
I468
sS'maryland'
p3764
I3864
sS'include'
p3765
I436
sS'postings'
p3766
I2781
sS'resources'
p3767
I477
sS'lindner'
p3768
I3918
sS'confirmation'
p3769
I4230
sS'persuade'
p3770
I4462
sS'lloyds'
p3771
I2131
sS'organizations'
p3772
I4452
sS'automotive'
p3773
I3318
sS'alcan'
p3774
I2361
sS'continues'
p3775
I1566
sS'miners'
p3776
I1861
sS'acreage'
p3777
I1234
sS'indication'
p3778
I3293
sS'putting'
p3779
I3211
sS'telling'
p3780
I4358
sS'continued'
p3781
I689
sS'minerals'
p3782
I1608
sS'arrange'
p3783
I2991
sS'entire'
p3784
I1757
sS'pennzoil'
p3785
I4391
sS'sen.'
p3786
I3284
sS'sparked'
p3787
I4394
sS'transmission'
p3788
I4820
sS'positions'
p3789
I1692
sS'notes'
p3790
I1002
sS'f'
p3791
I2522
sS'michael'
p3792
I1852
sS'7.0'
p3793
I4774
sS'fewer'
p3794
I4916
sS'try'
p3795
I1275
sS'chartered'
p3796
I2787
sS'7.6'
p3797
I2596
sS'2.20'
p3798
I4031
sS'noted'
p3799
I493
sS'2.25'
p3800
I3754
sS'concluded'
p3801
I2645
sS'smaller'
p3802
I1582
sS'carter'
p3803
I4886
sS'issuing'
p3804
I4141
sS'frost'
p3805
I4315
sS'participate'
p3806
I3597
sS'mediterranean'
p3807
I4242
sS'quaker'
p3808
I3836
sS'crop'
p3809
I451
sS'jump'
p3810
I3926
sS'multilateral'
p3811
I4030
sS'stearns'
p3812
I4121
sS'video'
p3813
I1894
sS'licenses'
p3814
I4448
sS'dynamics'
p3815
I2469
sS'cartel'
p3816
I3641
sS'growers'
p3817
I1226
sS'makers'
p3818
I1931
sS'contingent'
p3819
I4089
sS'index'
p3820
I600
sS'nevada'
p3821
I3645
sS'business'
p3822
I188
sS'troy'
p3823
I4752
sS'chicago'
p3824
I1129
sS'giving'
p3825
I1346
sS'schedule'
p3826
I3238
sS'kuwaiti'
p3827
I2958
sS'expressed'
p3828
I1646
sS'rescheduling'
p3829
I4824
sS'access'
p3830
I1498
sS'paying'
p3831
I1739
sS'waiting'
p3832
I2080
sS'indian'
p3833
I1976
sS'turnaround'
p3834
I3919
sS'five-year'
p3835
I2163
sS'sims'
p3836
I4240
sS'capital'
p3837
I221
sS'multi-family'
p3838
I4666
sS'firms'
p3839
I547
sS'exercise'
p3840
I2181
sS'1.48'
p3841
I4874
sS'body'
p3842
I2332
sS'impact'
p3843
I774
sS'led'
p3844
I847
sS'lee'
p3845
I3192
sS'stance'
p3846
I3036
sS'exchange'
p3847
I103
sS'respectively'
p3848
I702
sS'pushing'
p3849
I3491
sS'commercial'
p3850
I562
sS'giant'
p3851
I3765
sS'jointly'
p3852
I2410
sS'following'
p3853
I494
sS'explore'
p3854
I3278
sS'let'
p3855
I2463
sS'n.z'
p3856
I2005
sS'totalled'
p3857
I971
sS'consideration'
p3858
I1494
sS'soymeal'
p3859
I4116
sS'suggest'
p3860
I2776
sS'morocco'
p3861
I4872
sS'great'
p3862
I1190
sS'38'
p3863
I1246
sS'patents'
p3864
I4729
sS'cts'
p3865
I22
sS'receive'
p3866
I810
sS'involved'
p3867
I1180
sS'31'
p3868
I116
sS'30'
p3869
I192
sS'37'
p3870
I1222
sS'36'
p3871
I1287
sS'35'
p3872
I780
sS'34'
p3873
I1178
sS'justice'
p3874
I2191
sS'products'
p3875
I248
sS'ctc'
p3876
I4489
sS'principally'
p3877
I4958
sS'opinion'
p3878
I2034
sS'implement'
p3879
I3353
sS'makes'
p3880
I1044
sS'maker'
p3881
I1551
sS'involves'
p3882
I4490
sS'nestle'
p3883
I4284
sS'holmes'
p3884
I4449
sS'0.9'
p3885
I2298
sS'u.k.'
p3886
I356
sS'debts'
p3887
I2123
sS'foresee'
p3888
I4941
sS'27.5'
p3889
I4862
sS'clark'
p3890
I3012
sS'deputy'
p3891
I1624
sS'egypt'
p3892
I1855
sS'win'
p3893
I4458
sS'miti'
p3894
I1606
sS'private'
p3895
I445
sS'4.77'
p3896
I4541
sS'austria'
p3897
I4744
sS'surpluses'
p3898
I1862
sS'decrease'
p3899
I2101
sS'sgl'
p3900
I2771
sS'motor'
p3901
I2045
sS'90,000'
p3902
I4481
sS'apply'
p3903
I2384
sS'cooperative'
p3904
I2883
sS'headed'
p3905
I3096
sS'writedown'
p3906
I1511
sS'fed'
p3907
I300
sS'fee'
p3908
I1741
sS'from'
p3909
I21
sS'consumption'
p3910
I881
sS'&'
p3911
I18
sS'remains'
p3912
I997
sS'illegal'
p3913
I3886
sS'hudson'
p3914
I3059
sS'ministers'
p3915
I698
sS'next'
p3916
I255
sS'few'
p3917
I854
sS'doubt'
p3918
I3025
sS'bancshares'
p3919
I3474
sS'subsidized'
p3920
I2783
sS'oils'
p3921
I994
sS'timing'
p3922
I3125
sS'themselves'
p3923
I2953
sS'panel'
p3924
I2238
sS'chip'
p3925
I1806
sS'reflects'
p3926
I2023
sS'belgian'
p3927
I1458
sS'gained'
p3928
I2352
sS'parliament'
p3929
I1536
sS'formally'
p3930
I3013
sS'journalists'
p3931
I2713
sS'upcoming'
p3932
I4470
sS'comparison'
p3933
I3528
sS'started'
p3934
I1155
sS'0.5'
p3935
I1261
sS'41.5'
p3936
I4711
sS'factor'
p3937
I1559
sS'benchmark'
p3938
I3589
sS'occurred'
p3939
I3193
sS'purposes'
p3940
I1751
sS'dealings'
p3941
I4021
sS'carrying'
p3942
I3633
sS'appeal'
p3943
I2968
sS'sharply'
p3944
I768
sS'arranging'
p3945
I4605
sS'olein'
p3946
I4295
sS'mitsubishi'
p3947
I3388
sS'harvest'
p3948
I1186
sS'appointed'
p3949
I3359
sS'boards'
p3950
I3070
sS'customer'
p3951
I984
sS'sweetener'
p3952
I4999
sS'account'
p3953
I428
sS'edelman'
p3954
I3613
sS'avana'
p3955
I4504
sS'announcing'
p3956
I3158
sS'sanctions'
p3957
I1450
sS'this'
p3958
I51
sS'bally'
p3959
I2378
sS'challenge'
p3960
I3309
sS'averaged'
p3961
I1468
sS'laid'
p3962
I4962
sS'3.80'
p3963
I4336
sS'recession'
p3964
I2156
sS'argue'
p3965
I4438
sS'lumber'
p3966
I2657
sS'publications'
p3967
I3407
sS'drill'
p3968
I2810
sS'island'
p3969
I1836
sS'1.45'
p3970
I3634
sS'meet'
p3971
I649
sS'closing'
p3972
I983
sS'drops'
p3973
I4591
sS'1.40'
p3974
I4491
sS'something'
p3975
I2553
sS'control'
p3976
I465
sS'0.8'
p3977
I2518
sS'weaker'
p3978
I2909
sS'links'
p3979
I3927
sS'process'
p3980
I1205
sS'0.3'
p3981
I1829
sS'0.2'
p3982
I1409
sS'tax'
p3983
I143
sS'0.4'
p3984
I1410
sS'0.7'
p3985
I1708
sS'0.6'
p3986
I2339
sS'high'
p3987
I346
sS'effectively'
p3988
I3212
sS'reserves'
p3989
I229
sS'hilton'
p3990
I4232
sS'urged'
p3991
I1537
sS'employs'
p3992
I3335
sS'sought'
p3993
I1784
sS'triangle'
p3994
I4379
sS'reynolds'
p3995
I2268
sS'dominant'
p3996
I4640
sS'sir'
p3997
I4659
sS'gcc'
p3998
I3252
sS'united'
p3999
I237
sS'usair'
p4000
I544
sS'dwt'
p4001
I4857
sS'hongkong'
p4002
I2495
sS'holiday'
p4003
I4559
sS'six'
p4004
I147
sS'arrangement'
p4005
I2896
sS'traders'
p4006
I354
sS'located'
p4007
I2600
sS'forest'
p4008
I3865
sS'animal'
p4009
I3574
sS'instead'
p4010
I1202
sS'revs'
p4011
I81
sS'inflows'
p4012
I4788
sS'panic'
p4013
I4946
sS'slipped'
p4014
I3189
sS'aggressive'
p4015
I3106
sS'stock'
p4016
I70
sS'parliamentary'
p4017
I3369
sS'administrator'
p4018
I4328
sS'blocks'
p4019
I4092
sS'attend'
p4020
I2605
sS'farm'
p4021
I510
sS'waters'
p4022
I2992
sS'testimony'
p4023
I4026
sS'space'
p4024
I4403
sS'tied'
p4025
I4167
sS'halted'
p4026
I3525
sS'non-recurring'
p4027
I3950
sS'maturities'
p4028
I4117
sS'insufficient'
p4029
I4309
sS'ties'
p4030
I4492
sS'realized'
p4031
I2855
sS'guilder'
p4032
I2529
sS'light'
p4033
I1126
sS'counter'
p4034
I3601
sS'lines'
p4035
I1181
sS'or'
p4036
I57
sS'commodities'
p4037
I1307
sS'chief'
p4038
I619
sS'baird'
p4039
I2841
sS'allow'
p4040
I839
sS'consent'
p4041
I3478
sS'subsequently'
p4042
I4959
sS'executives'
p4043
I2414
sS'divided'
p4044
I3423
sS'preparing'
p4045
I4090
sS'houston'
p4046
I1987
sS'ha'
p4047
I3122
sS'holds'
p4048
I1047
sS'metex'
p4049
I4606
sS'hanover'
p4050
I3640
sS'producer'
p4051
I678
sS'produces'
p4052
I2722
sS'institutional'
p4053
I2718
sS'train'
p4054
I4844
sS'manufactured'
p4055
I3430
sS'move'
p4056
I452
sS'equally'
p4057
I3859
sS'doubtful'
p4058
I4493
sS'produced'
p4059
I962
sS'shipbuilding'
p4060
I3585
sS'130'
p4061
I2903
sS'including'
p4062
I362
sS'looks'
p4063
I2317
sS'135'
p4064
I3233
sS'1.80'
p4065
I3454
sS'permission'
p4066
I4262
sS'agricultural'
p4067
I752
sS'year-earlier'
p4068
I2678
sS'vms'
p4069
I4992
sS'boosts'
p4070
I3492
sS'industries'
p4071
I289
sS'1'
p4072
I361
sS'negotiated'
p4073
I4327
sS'lb'
p4074
I1936
sS'mitsui'
p4075
I3500
sS'la'
p4076
I2887
sS'300,000'
p4077
I1643
sS'temporao'
p4078
I4003
sS'ships'
p4079
I934
sS'biotechnology'
p4080
I4798
sS'acres'
p4081
I904
sS'15.2'
p4082
I3058
sS'lt'
p4083
I19
sS'willing'
p4084
I1588
sS'degrees'
p4085
I3310
sS'peking'
p4086
I3093
sS'lp'
p4087
I3294
sS'poehl'
p4088
I3038
sS'orange'
p4089
I2609
sS'covered'
p4090
I2519
sS'chances'
p4091
I3149
sS'imbalance'
p4092
I2556
sS'pending'
p4093
I1314
sS'accelerated'
p4094
I4826
sS'puts'
p4095
I4160
sS'violating'
p4096
I4522
sS'crucial'
p4097
I3511
sS'greater'
p4098
I1016
sS'citrus'
p4099
I4858
sS'auto'
p4100
I2237
sS'dan'
p4101
I3534
sS'material'
p4102
I1789
sS'runs'
p4103
I3176
sS'operator'
p4104
I2759
sS'damages'
p4105
I3401
sS'1.17'
p4106
I3866
sS'cutting'
p4107
I1395
sS'alaska'
p4108
I3533
sS'hands'
p4109
I1943
sS'front'
p4110
I4316
sS'stabilise'
p4111
I1825
sS'eyskens'
p4112
I4948
sS'republican'
p4113
I2817
sS'investor'
p4114
I790
sS'day'
p4115
I400
sS'presidential'
p4116
I3054
sS'huckaby'
p4117
I3295
sS'assess'
p4118
I3989
sS'february'
p4119
I82
sS'fees'
p4120
I3321
sS'warned'
p4121
I1731
sS'university'
p4122
I3669
sS'eased'
p4123
I2147
sS'identified'
p4124
I2011
sS'registrations'
p4125
I2331
sS'merge'
p4126
I1490
sS'slide'
p4127
I2744
sS'ameritrust'
p4128
I3981
sS'bil'
p4129
I2988
sS'shortage'
p4130
I970
sS'shrs'
p4131
I204
sS'bills'
p4132
I686
sS'upward'
p4133
I1995
sS'commonwealth'
p4134
I3037
sS'3,000'
p4135
I3461
sS'jones'
p4136
I3530
sS'privatisation'
p4137
I3877
sS'tension'
p4138
I4127
sS'doing'
p4139
I2075
sS'stabilisation'
p4140
I3179
sS'700'
p4141
I2099
sS'levy'
p4142
I2334
sS'related'
p4143
I1041
sS'deficiency'
p4144
I2342
sS'88'
p4145
I3740
sS'books'
p4146
I2232
sS'variety'
p4147
I2868
sS'measure'
p4148
I1133
sS'82'
p4149
I2505
sS'our'
p4150
I399
sS'80'
p4151
I775
sS'81'
p4152
I2675
sS'agriculture'
p4153
I292
sS'87'
p4154
I2273
sS'special'
p4155
I605
sS'out'
p4156
I258
sS'category'
p4157
I4193
sS'offsetting'
p4158
I3856
sS"'"
p4159
I280
sS'entertainment'
p4160
I2300
sS'announces'
p4161
I4119
sS'defend'
p4162
I2429
sS'rev'
p4163
I1453
sS'wholly'
p4164
I1937
sS'liberalisation'
p4165
I4098
sS'cra'
p4166
I4625
sS'barley'
p4167
I1103
sS'exporting'
p4168
I2072
sS'electronics'
p4169
I1330
sS'cause'
p4170
I1210
sS'integrated'
p4171
I3714
sS'announced'
p4172
I308
sS'disclose'
p4173
I2709
sS'franc'
p4174
I1475
sS'shut'
p4175
I2979
sS'approached'
p4176
I3366
sS'1987'
p4177
I90
sS'spot'
p4178
I1289
sS'withdrawal'
p4179
I2665
sS'delegates'
p4180
I625
sS'ibm'
p4181
I4351
sS'embassy'
p4182
I2563
sS'ban'
p4183
I2726
sS'ecu'
p4184
I3201
sS'2.50'
p4185
I3521
sS'york'
p4186
I416
sS'trends'
p4187
I2599
sS'advisor'
p4188
I3961
sS'regulatory'
p4189
I1097
sS'van'
p4190
I2777
sS'philip'
p4191
I3977
sS'20,000'
p4192
I2143
sS'1983'
p4193
I1738
sS'resumed'
p4194
I4942
sS'ronald'
p4195
I4730
sS'tanker'
p4196
I3351
sS'allies'
p4197
I4549
sS'hostile'
p4198
I2367
sS'1.14'
p4199
I4650
sS'gallons'
p4200
I4094
sS'could'
p4201
I118
sS'1981'
p4202
I2126
sS'ask'
p4203
I1878
sS'times'
p4204
I1077
sS'keen'
p4205
I3823
sS'produce'
p4206
I1095
sS'ltd'
p4207
I121
sS'barriers'
p4208
I2188
sS'retain'
p4209
I2320
sS'retail'
p4210
I849
sS'stimulate'
p4211
I1932
sS'south'
p4212
I303
sS'secured'
p4213
I4188
sS'plastics'
p4214
I2965
sS'pre-split'
p4215
I4062
sS'boliden'
p4216
I2690
sS'450'
p4217
I2811
sS'2,000'
p4218
I3068
sS'owned'
p4219
I497
sS'strategic'
p4220
I1820
sS'improving'
p4221
I2319
sS'improvements'
p4222
I3090
sS'proposing'
p4223
I3984
sS'drastic'
p4224
I3667
sS'owner'
p4225
I2702
sS'reached'
p4226
I643
sS'imperial'
p4227
I1839
sS'quality'
p4228
I1539
sS'owning'
p4229
I4960
sS'destinations'
p4230
I2340
sS'management'
p4231
I327
sS'reference'
p4232
I2168
sS'los'
p4233
I2212
sS'unknown'
p4234
I3020
sS'durable'
p4235
I4175
sS'system'
p4236
I296
sS'relations'
p4237
I1554
sS'recapitalization'
p4238
I3222
sS'priority'
p4239
I3188
sS'their'
p4240
I125
sS'attack'
p4241
I2802
sS'intermediate'
p4242
I2350
sS'roderick'
p4243
I4245
sS'650'
p4244
I4560
sS'intelligence'
p4245
I4192
sS'rigs'
p4246
I3493
sS'man'
p4247
I3512
sS'banque'
p4248
I3962
sS'final'
p4249
I529
sS'smelting'
p4250
I3923
sS'interests'
p4251
I859
sS'plantings'
p4252
I2246
sS'shell'
p4253
I1179
sS'tenneco'
p4254
I3487
sS'shelf'
p4255
I3878
sS'completed'
p4256
I473
sS'acquire'
p4257
I363
sS'environmental'
p4258
I3042
sS'chemicals'
p4259
I1570
sS'reflecting'
p4260
I1723
sS'branches'
p4261
I2996
sS'july'
p4262
I654
sS'completes'
p4263
I1138
sS'petrobras'
p4264
I1988
sS'steel'
p4265
I596
sS'resist'
p4266
I2888
sS'venezuelan'
p4267
I3721
sS'johnson'
p4268
I1389
sS'9.0'
p4269
I4310
sS'14.7'
p4270
I4112
sS'2.9'
p4271
I1752
sS'submitted'
p4272
I2435
sS'limiting'
p4273
I4859
sS'roberts'
p4274
I3602
sS'sweden'
p4275
I1758
sS'2.8'
p4276
I1740
sS'quest'
p4277
I4871
sS'assays'
p4278
I3550
sS'briefing'
p4279
I4395
sS'providing'
p4280
I2094
sS'steep'
p4281
I3575
sS'creditors'
p4282
I2022
sS'ferry'
p4283
I2633
sS'1.4'
p4284
I1301
sS'1.5'
p4285
I613
sS'1.6'
p4286
I1383
sS'1.7'
p4287
I1549
sS'1.0'
p4288
I1569
sS'1.1'
p4289
I1028
sS'1.2'
p4290
I1053
sS'1.3'
p4291
I1068
sS'unchanged'
p4292
I587
sS'partnership'
p4293
I923
sS'1.8'
p4294
I1411
sS'1.9'
p4295
I1465
sS'tonight'
p4296
I2343
sS'tender'
p4297
I262
sS'3-1/2'
p4298
I4979
sS'unlikely'
p4299
I1020
sS'have'
p4300
I56
sS'close'
p4301
I482
sS'need'
p4302
I548
sS'facing'
p4303
I3064
sS'apparently'
p4304
I2670
sS'clearly'
p4305
I2269
sS'alvite'
p4306
I4067
sS'documents'
p4307
I4396
sS'satoshi'
p4308
I3689
sS'22.8'
p4309
I4934
sS'dallas'
p4310
I3434
sS'studying'
p4311
I2165
sS'agency'
p4312
I539
sS'able'
p4313
I1027
sS'mid'
p4314
I4471
sS'purchasing'
p4315
I2724
sS'arm'
p4316
I3341
sS'tighten'
p4317
I3435
sS'1.39'
p4318
I4422
sS'320'
p4319
I4894
sS'concerns'
p4320
I2304
sS'declined'
p4321
I476
sS'which'
p4322
I50
sS'1.30'
p4323
I3124
sS'truck'
p4324
I3631
sS'korean'
p4325
I2362
sS'78'
p4326
I3034
sS'1.34'
p4327
I3395
sS'1.35'
p4328
I3213
sS'1.36'
p4329
I4424
sS'worldwide'
p4330
I1371
sS'fuels'
p4331
I3390
sS'unless'
p4332
I1114
sS'e.f.'
p4333
I2496
sS'centre'
p4334
I3344
sS'petrol'
p4335
I3519
sS'who'
p4336
I334
sS'1.99'
p4337
I4852
sS'oilseed'
p4338
I3517
sS'intentions'
p4339
I3615
sS'eight'
p4340
I336
sS'15.50'
p4341
I4712
sS'preliminary'
p4342
I1267
sS'19.4'
p4343
I4855
sS'threats'
p4344
I4756
sS'expired'
p4345
I3136
sS'payment'
p4346
I683
sS'probable'
p4347
I3751
sS'volume'
p4348
I879
sS'800,000'
p4349
I2490
sS'placement'
p4350
I4053
sS'reduces'
p4351
I3873
sS'hk'
p4352
I4256
sS'request'
p4353
I1372
sS'disease'
p4354
I2019
sS'face'
p4355
I1350
sS'1,000'
p4356
I2196
sS'proceedings'
p4357
I3696
sS'lowered'
p4358
I1619
sS'guinea'
p4359
I4274
sS'lakes'
p4360
I4780
sS'mulroney'
p4361
I3789
sS'mississippi'
p4362
I2947
sS'normally'
p4363
I2247
sS'scrap'
p4364
I3965
sS'fact'
p4365
I1681
sS'goals'
p4366
I4142
sS'emerging'
p4367
I4680
sS'listed'
p4368
I2587
sS'agreed'
p4369
I206
sS'supported'
p4370
I2169
sS'restored'
p4371
I4214
sS'bring'
p4372
I1089
sS'planning'
p4373
I1402
sS'lloyd'
p4374
I4993
sS'healthcare'
p4375
I4410
sS'portfolio'
p4376
I2083
sS'fear'
p4377
I2454
sS'high-level'
p4378
I4681
sS'economist'
p4379
I1121
sS'debate'
p4380
I1801
sS'decade'
p4381
I3719
sS'staff'
p4382
I1526
sS'litigation'
p4383
I2934
sS'partners'
p4384
I666
sS'promote'
p4385
I2625
sS'based'
p4386
I463
sS'tire'
p4387
I1884
sS'earned'
p4388
I969
sS'('
p4389
I65
sS'rospatch'
p4390
I3535
sS'controls'
p4391
I941
sS'should'
p4392
I216
sS'jan'
p4393
I364
sS'entities'
p4394
I4202
sS'planted'
p4395
I1471
sS'yulo'
p4396
I4849
sS'fuel'
p4397
I1055
sS'employed'
p4398
I3643
sS'b'
p4399
I1080
sS'local'
p4400
I830
sS'greenmail'
p4401
I4556
sS'hope'
p4402
I1251
sS'plywood'
p4403
I4697
sS'meant'
p4404
I2363
sS'costa'
p4405
I3111
sS'handle'
p4406
I3720
sS'shultz'
p4407
I2569
sS'means'
p4408
I1017
sS'dauster'
p4409
I2344
sS'michigan'
p4410
I2381
sS'overall'
p4411
I942
sS'lucky'
p4412
I2980
sS'bear'
p4413
I2333
sS'vehicles'
p4414
I3766
sS'120'
p4415
I1699
sS'joint'
p4416
I660
sS'bean'
p4417
I4514
sS'125'
p4418
I3121
sS'exchanges'
p4419
I2202
sS'buyer'
p4420
I2008
sS'129'
p4421
I4411
sS'years'
p4422
I214
sS'chips'
p4423
I1685
sS'pharmaceutical'
p4424
I3974
sS'areas'
p4425
I635
sS'quiet'
p4426
I4554
sS'shr'
p4427
I52
sS'czarnikow'
p4428
I4185
sS'herrington'
p4429
I1900
sS'mulford'
p4430
I3261
sS'course'
p4431
I1843
sS'denmark'
p4432
I3085
sS'differential'
p4433
I4759
sS'comprising'
p4434
I2470
sS'taxes'
p4435
I1269
sS'calling'
p4436
I2919
sS'whether'
p4437
I564
sS'indonesian'
p4438
I1804
sS'she'
p4439
I1049
sS'contain'
p4440
I3644
sS'ohio'
p4441
I1780
sS'fixed'
p4442
I920
sS'view'
p4443
I1192
sS'available'
p4444
I621
sS'requirement'
p4445
I1329
sS'temporarily'
p4446
I3813
sS'qtr'
p4447
I78
sS'aegean'
p4448
I2441
sS'34.9'
p4449
I4782
sS'acquired'
p4450
I469
sS'national'
p4451
I200
sS'differentials'
p4452
I1959
sS'we'
p4453
I105
sS'operates'
p4454
I1831
sS'officials'
p4455
I191
sS'yugoslavia'
p4456
I4106
sS'subcommittee'
p4457
I1183
sS'greece'
p4458
I1579
sS'operated'
p4459
I2301
sS'bidders'
p4460
I3814
sS'senator'
p4461
I4806
sS'unacceptable'
p4462
I4765
sS'textiles'
p4463
I2660
sS'acquires'
p4464
I1797
sS'closer'
p4465
I3660
sS'closes'
p4466
I4046
sS'borrowers'
p4467
I3945
sS'asks'
p4468
I4064
sS'likelihood'
p4469
I4421
sS'nationwide'
p4470
I3400
sS'adsteam'
p4471
I4426
sS'reform'
p4472
I1438
sS'nuclear'
p4473
I2190
sS'nature'
p4474
I3913
sS'commented'
p4475
I3850
sS'finally'
p4476
I4033
sS'dlr'
p4477
I131
sS'state'
p4478
I331
sS'difficulties'
p4479
I1989
sS'closed'
p4480
I794
sS'slack'
p4481
I4607
sS'crude'
p4482
I272
sS'bundesbank'
p4483
I636
sS'neither'
p4484
I3480
sS'prevailing'
p4485
I3670
sS'colombian'
p4486
I3838
sS'midnight'
p4487
I2976
sS'bought'
p4488
I391
sS'sciences'
p4489
I4077
sS'mthly'
p4490
I3839
sS'ends'
p4491
I1255
sS'ability'
p4492
I1785
sS'opening'
p4493
I1359
sS'importance'
p4494
I3429
sS'deliver'
p4495
I4845
sS'agencies'
p4496
I2629
sS'job'
p4497
I3021
sS'takeover'
p4498
I528
sS'queensland'
p4499
I4207
sS'joe'
p4500
I4562
sS'key'
p4501
I837
sS'approval'
p4502
I466
sS'precious'
p4503
I4255
sS'lawsuit'
p4504
I3442
sS'distribution'
p4505
I700
sS'declining'
p4506
I1867
sS'david'
p4507
I1491
sS'restrictions'
p4508
I1638
sS'commenting'
p4509
I2160
sS'limits'
p4510
I1807
sS'leveraged'
p4511
I2592
sS'taking'
p4512
I929
sS'darman'
p4513
I4846
sS'equal'
p4514
I1428
sS'drug'
p4515
I2091
sS'1.04'
p4516
I4575
sS'april'
p4517
I88
sS'liquidating'
p4518
I3560
sS'figures'
p4519
I277
sS'auctions'
p4520
I4015
sS'ami'
p4521
I3924
sS'importers'
p4522
I2798
sS'32.5'
p4523
I4994
sS'jersey'
p4524
I2541
sS'grounds'
p4525
I2308
sS'comment'
p4526
I536
sS'detailed'
p4527
I2701
sS'adjusted'
p4528
I481
sS'jim'
p4529
I2999
sS'co'
p4530
I97
sS'gone'
p4531
I3686
sS'wall'
p4532
I1547
sS'tuesday'
p4533
I1357
sS'irish'
p4534
I4634
sS'packaging'
p4535
I2891
sS'rural'
p4536
I4771
sS'missile'
p4537
I3791
sS'denis'
p4538
I4220
sS'qintex'
p4539
I3671
sS'wti'
p4540
I3422
sS'respect'
p4541
I2959
sS'zinc'
p4542
I1596
sS'labor'
p4543
I1991
sS'withdrawn'
p4544
I3661
sS'ct'
p4545
I848
sS'8.1'
p4546
I4307
sS'8.0'
p4547
I2782
sS'8.3'
p4548
I2567
sS'8.2'
p4549
I3526
sS'8.5'
p4550
I2413
sS'8.4'
p4551
I3887
sS'midland'
p4552
I2431
sS'8.6'
p4553
I3427
sS'addition'
p4554
I819
sS'8.8'
p4555
I2911
sS'quotas'
p4556
I609
sS'cent'
p4557
I1069
sS'permanent'
p4558
I3128
sS'slowly'
p4559
I4833
sS'agreements'
p4560
I739
sS'olson'
p4561
I4563
sS'indicators'
p4562
I2546
sS'proposal'
p4563
I429
sS'waste'
p4564
I1464
sS'louisiana'
p4565
I2281
sS'killed'
p4566
I3827
sS'>'
p4567
I20
sS'hernandez'
p4568
I2828
sS'faced'
p4569
I2294
sS'controlled'
p4570
I1632
sS'c.'
p4571
I3285
sS'fnv'
p4572
I4643
sS'moved'
p4573
I2448
sS'sufficient'
p4574
I2822
sS'prospects'
p4575
I981
sS'soared'
p4576
I3539
sS'bulk'
p4577
I1648
sS'finished'
p4578
I3069
sS'expenditure'
p4579
I1658
sS'ice'
p4580
I3978
sS'bull'
p4581
I2901
sS'mths'
p4582
I370
sS'atlanta'
p4583
I3815
sS'general'
p4584
I250
sS'spain'
p4585
I1163
sS'southmark'
p4586
I4281
sS'homes'
p4587
I2847
sS'debtor'
p4588
I4063
sS'troubled'
p4589
I4049
sS'abandoned'
p4590
I4861
sS'restaurant'
p4591
I4370
sS'permit'
p4592
I2785
sS'as'
p4593
I44
sS'value'
p4594
I377
sS'unusually'
p4595
I3892
sS'will'
p4596
I32
sS'expiration'
p4597
I3114
sS'owns'
p4598
I979
sS'rbd'
p4599
I3586
sS'discoveries'
p4600
I4631
sS'11.8'
p4601
I4404
sS'cereals'
p4602
I2421
sS'cbt'
p4603
I2820
sS'almost'
p4604
I1024
sS'blood'
p4605
I4793
sS'thus'
p4606
I2061
sS'federated'
p4607
I4737
sS'helped'
p4608
I1354
sS'cathay'
p4609
I2763
sS'vs'
p4610
I11
sS'optimistic'
p4611
I1771
sS'lifetime'
p4612
I4791
sS'arabia'
p4613
I991
sS'partner'
p4614
I1924
sS'avg'
p4615
I202
sS'shearson'
p4616
I911
sS'halt'
p4617
I2446
sS'happy'
p4618
I4235
sS'education'
p4619
I4359
sS'productivity'
p4620
I4221
sS'peseta'
p4621
I4837
sS')'
p4622
I64
sS'began'
p4623
I868
sS'janeiro'
p4624
I3590
sS'administration'
p4625
I511
sS'cross'
p4626
I2318
sS'member'
p4627
I791
sS'adverse'
p4628
I3345
sS'parts'
p4629
I1316
sS'northwest'
p4630
I2525
sS'largest'
p4631
I504
sS'units'
p4632
I608
sS'party'
p4633
I1553
sS'negotiate'
p4634
I1541
sS'gets'
p4635
I1663
sS'solution'
p4636
I2449
sS'outlined'
p4637
I4135
sS'difficult'
p4638
I1029
sS'colonial'
p4639
I4843
sS'0.1'
p4640
I1540
sS'practice'
p4641
I3440
sS'columbia'
p4642
I2591
sS'residential'
p4643
I4397
sS'cubic'
p4644
I1241
sS'reporting'
p4645
I1684
sS'upon'
p4646
I2142
sS'effect'
p4647
I616
sS'forecasts'
p4648
I925
sS'comdata'
p4649
I2063
sS'4.6'
p4650
I3658
sS'introduce'
p4651
I3849
sS'1.11'
p4652
I4004
sS"'ll"
p4653
I2851
sS'countertrade'
p4654
I3133
sS'expand'
p4655
I1091
sS'poultry'
p4656
I2970
sS'transaction'
p4657
I575
sS'off'
p4658
I375
sS'center'
p4659
I2323
sS'records'
p4660
I4236
sS'i'
p4661
I285
sS'approve'
p4662
I1664
sS'indonesia'
p4663
I825
sS'well'
p4664
I345
sS'thought'
p4665
I1916
sS'1.29'
p4666
I3921
sS'banker'
p4667
I1977
sS'sets'
p4668
I341
sS'1.23'
p4669
I2856
sS'position'
p4670
I696
sS'fail'
p4671
I3567
sS'1.20'
p4672
I3354
sS'soviet'
p4673
I395
sS'drawing'
p4674
I3055
sS'inc.'
p4675
I1392
sS'latest'
p4676
I632
sS'restore'
p4677
I3331
sS'75,000'
p4678
I4597
sS'non-opec'
p4679
I4382
sS'stores'
p4680
I670
sS'restructure'
p4681
I3056
sS'less'
p4682
I467
sS'increasingly'
p4683
I2256
sS'4.9'
p4684
I3258
sS'executive'
p4685
I554
sS'domestic'
p4686
I282
sS'obtain'
p4687
I2376
sS'detail'
p4688
I4222
sS'sources'
p4689
I218
sS'underlying'
p4690
I1644
sS'predicts'
p4691
I4168
sS'enterprise'
p4692
I2971
sS'dakota'
p4693
I3840
sS'tone'
p4694
I4926
sS'paul'
p4695
I1509
sS'41'
p4696
I1745
sS'coordination'
p4697
I4500
sS'hamburg'
p4698
I4887
sS'rapid'
p4699
I2549
sS'7,000'
p4700
I3061
sS'tight'
p4701
I2613
sS'baldrige'
p4702
I1378
sS'point'
p4703
I545
sS'smith'
p4704
I1749
sS'deposits'
p4705
I813
sS'rebate'
p4706
I2041
sS'drew'
p4707
I4109
sS'heritage'
p4708
I3932
sS'add'
p4709
I1112
sS'book'
p4710
I2425
sS'extends'
p4711
I3290
sS'subordinated'
p4712
I2120
sS'delegations'
p4713
I3792
sS'wet'
p4714
I3782
sS'usage'
p4715
I2935
sS'tesco'
p4716
I4480
sS'warrant'
p4717
I2401
sS'acted'
p4718
I4709
sS'match'
p4719
I2520
sS'gmt'
p4720
I1693
sS'resolved'
p4721
I2478
sS'tests'
p4722
I3841
sS'petrochemical'
p4723
I3484
sS'definitive'
p4724
I1281
sS'provisions'
p4725
I1063
sS'government'
p4726
I99
sS'chancellor'
p4727
I2122
sS'baltic'
p4728
I3953
sS'utah'
p4729
I3757
sS'clercq'
p4730
I3905
sS'fats'
p4731
I1903
sS'siemens'
p4732
I2517
sS'increases'
p4733
I722
sS'zimbabwe'
p4734
I2857
sS'five'
p4735
I144
sS'know'
p4736
I1627
sS'burden'
p4737
I3244
sS'tropical'
p4738
I4206
sS'press'
p4739
I893
sS'immediately'
p4740
I944
sS'pier'
p4741
I4715
sS'14.0'
p4742
I4257
sS'loss'
p4743
I37
sS'lincoln'
p4744
I4731
sS'necessary'
p4745
I985
sS'like'
p4746
I902
sS'lost'
p4747
I1115
sS'mhi'
p4748
I3477
sS'fitzwater'
p4749
I4212
sS'lawson'
p4750
I988
sS'payments'
p4751
I421
sS'banner'
p4752
I4132
sS'james'
p4753
I963
sS'become'
p4754
I860
sS'consulting'
p4755
I4484
sS'works'
p4756
I3043
sS'soft'
p4757
I1719
sS'backlog'
p4758
I2488
sS'italian'
p4759
I1863
sS'amendment'
p4760
I2551
sS'exceed'
p4761
I1613
sS'because'
p4762
I158
sS'arbitrage'
p4763
I4285
sS'guaranty'
p4764
I3378
sS'foreseeable'
p4765
I4995
sS'unsuccessful'
p4766
I4434
sS'authority'
p4767
I1293
sS'14.8'
p4768
I3699
sS'brian'
p4769
I4299
sS'growth'
p4770
I149
sS'export'
p4771
I154
sS'110'
p4772
I2574
sS'recommendation'
p4773
I2262
sS'home'
p4774
I861
sS'peter'
p4775
I2500
sS'employment'
p4776
I1386
sS'transport'
p4777
I1184
sS'est'
p4778
I2606
sS'encouraging'
p4779
I2195
sS'unocal'
p4780
I4354
sS'lead'
p4781
I823
sS'severance'
p4782
I4483
sS'broad'
p4783
I1756
sS'avoid'
p4784
I1584
sS'note:1986'
p4785
I3057
sS'mines'
p4786
I907
sS'lear'
p4787
I4523
sS'oman'
p4788
I4783
sS'does'
p4789
I480
sS'contact'
p4790
I3604
sS'wendy'
p4791
I2640
sS'assuming'
p4792
I3621
sS'22.6'
p4793
I4536
sS'leader'
p4794
I1800
sS'beverage'
p4795
I4201
sS'crosby'
p4796
I4630
sS'fichtel'
p4797
I4944
sS'slight'
p4798
I2818
sS'70,000'
p4799
I3501
sS'upwards'
p4800
I3985
sS'monetary'
p4801
I519
sS'expansion'
p4802
I1019
sS'pressure'
p4803
I661
sS'expire'
p4804
I1980
sS'although'
p4805
I606
sS'offset'
p4806
I1127
sS'n.v.'
p4807
I4263
sS'a.'
p4808
I3808
sS'loans'
p4809
I458
sS'reuter'
p4810
I2184
sS'counties'
p4811
I4822
sS'stage'
p4812
I1715
sS'payout'
p4813
I611
sS'about'
p4814
I66
sS'actual'
p4815
I1821
sS'carried'
p4816
I2088
sS'extension'
p4817
I2404
sS'debentures'
p4818
I1589
sS'processors'
p4819
I2679
sS'withdrew'
p4820
I4211
sS'dependence'
p4821
I3262
sS'shipping'
p4822
I858
sS'surge'
p4823
I2734
sS'angeles'
p4824
I2310
sS'holdings'
p4825
I542
sS'carrier'
p4826
I2936
sS'dominion'
p4827
I4835
sS'23.1'
p4828
I4888
sS'urges'
p4829
I2610
sS'concession'
p4830
I4672
sS'introduced'
p4831
I1872
sS'software'
p4832
I2282
sS'crudes'
p4833
I3793
sS'own'
p4834
I624
sS'coverage'
p4835
I3958
sS'previously'
p4836
I392
sS'7-3/4'
p4837
I1652
sS'warrants'
p4838
I1218
sS'washington'
p4839
I665
sS'commitment'
p4840
I1826
sS'getting'
p4841
I2226
sS'cocoa'
p4842
I496
sS'brands'
p4843
I3705
sS'weather'
p4844
I846
sS'promise'
p4845
I4383
sS'congressmen'
p4846
I3553
sS'fish'
p4847
I3771
sS'registration'
p4848
I2792
sS'quickly'
p4849
I1581
sS'banco'
p4850
I3990
sS'utility'
p4851
I2418
sS'1986'
p4852
I46
sS'maize'
p4853
I796
sS'1984'
p4854
I1118
sS'1985'
p4855
I101
sS'1982'
p4856
I2170
sS'additional'
p4857
I527
sS'1980'
p4858
I1400
sS'confident'
p4859
I1689
sS'texaco'
p4860
I2278
sS'transfer'
p4861
I1592
sS'housing'
p4862
I1773
sS'snyder'
p4863
I4203
sS'trapped'
p4864
I4725
sS'1988'
p4865
I495
sS'1989'
p4866
I1621
sS'continental'
p4867
I1198
sS'intention'
p4868
I2132
sS'trigger'
p4869
I4065
sS'9.8'
p4870
I2415
sS'9.9'
p4871
I2329
sS'biggest'
p4872
I1702
sS'9.5'
p4873
I2981
sS'9.6'
p4874
I3082
sS'9.7'
p4875
I3329
sS'pretax'
p4876
I761
sS'9.1'
p4877
I3428
sS'ascs'
p4878
I3451
sS'fiscal'
p4879
I338
sS'ivory'
p4880
I3162
sS'buy'
p4881
I179
sS'north'
p4882
I604
sS'ireland'
p4883
I4603
sS'triggered'
p4884
I3540
sS'supertanker'
p4885
I4761
sS'funds'
p4886
I433
sS'brand'
p4887
I4516
sS'akzo'
p4888
I4373
sS'but'
p4889
I49
sS'societe'
p4890
I3635
sS'delivery'
p4891
I894
sS'insured'
p4892
I3184
sS'repeated'
p4893
I2504
sS'construction'
p4894
I1142
sS'gain'
p4895
I246
sS'larger'
p4896
I1637
sS'earthquake'
p4897
I2511
sS'highest'
p4898
I1961
sS'two-for-one'
p4899
I1308
sS'basin'
p4900
I2389
sS'he'
p4901
I38
sS'count'
p4902
I4243
sS'19.5'
p4903
I4158
sS'made'
p4904
I186
sS'placer'
p4905
I4055
sS'lyng'
p4906
I1229
sS'wish'
p4907
I3858
sS'60,000'
p4908
I3348
sS'official'
p4909
I141
sS'signed'
p4910
I650
sS'imbalances'
p4911
I2661
sS'covers'
p4912
I4684
sS'record'
p4913
I120
sS'below'
p4914
I380
sS'89'
p4915
I2628
sS'limit'
p4916
I1004
sS'ruling'
p4917
I1352
sS'200,000'
p4918
I1802
sS'problem'
p4919
I899
sS'walter'
p4920
I3360
sS'broadly'
p4921
I2626
sS'urging'
p4922
I3361
sS'foster'
p4923
I2180
sS'supreme'
p4924
I3906
sS'pik'
p4925
I3767
sS'entering'
p4926
I4529
sS'inadequate'
p4927
I3234
sS'universal'
p4928
I3456
sS'contribute'
p4929
I2715
sS'pie'
p4930
I4186
sS'slowing'
p4931
I3154
sS'33.5'
p4932
I4059
sS'full-year'
p4933
I4318
sS'periods'
p4934
I937
sS'83'
p4935
I1966
sS'repayments'
p4936
I3190
sS'recommendations'
p4937
I3225
sS'proceeds'
p4938
I1266
sS'worse'
p4939
I4267
sS'inc'
p4940
I47
sS'planting'
p4941
I1705
sS'mutual'
p4942
I2026
sS'compared'
p4943
I201
sS'rumors'
p4944
I1748
sS'48'
p4945
I1768
sS'49'
p4946
I1404
sS'46'
p4947
I1597
sS'corporation'
p4948
I958
sS'44'
p4949
I1508
sS'45'
p4950
I885
sS'42'
p4951
I1356
sS'43'
p4952
I1390
sS'40'
p4953
I559
sS'illinois'
p4954
I1654
sS'westminster'
p4955
I3758
sS'other'
p4956
I102
sS'compares'
p4957
I1424
sS'details'
p4958
I706
sS'branch'
p4959
I2227
sS'zico'
p4960
I3987
sS'compete'
p4961
I2928
sS'2-1/2'
p4962
I4169
sS'85'
p4963
I1645
sS'conclusion'
p4964
I4085
sS'subroto'
p4965
I3494
sS'star'
p4966
I2800
sS'monday'
p4967
I1083
sS'witter'
p4968
I4792
sS'missouri'
p4969
I3801
sS'june'
p4970
I388
sS'ultimately'
p4971
I3845
sS'stay'
p4972
I2348
sS'pennsylvania'
p4973
I3872
sS'chance'
p4974
I1495
sS'husky'
p4975
I4292
sS'strict'
p4976
I4612
sS'50,000'
p4977
I1766
sS'gap'
p4978
I1971
sS'incurred'
p4979
I3129
sS'exposure'
p4980
I2795
sS'philips'
p4981
I4187
sS'accrued'
p4982
I4420
sS'focused'
p4983
I4781
sS'sentiment'
p4984
I1962
sS'0.50'
p4985
I4627
sS'resolution'
p4986
I2730
sS'baker'
p4987
I501
sS'martin'
p4988
I2220
sS'emery'
p4989
I1922
sS'rule'
p4990
I2076
sS'hikes'
p4991
I3976
sS'portion'
p4992
I2009
sS'write'
p4993
I3637
sS'status'
p4994
I2197
sS'pension'
p4995
I1992
sS'volumes'
p4996
I3150
sS'tonnes'
p4997
I74
sS'petroleos'
p4998
I3861
sS'indirectly'
p4999
I3672
sS'brokers'
p5000
I1822
s.